
Alarm Clock AVR.elf:     file format elf32-avr

Sections:
Idx Name          Size      VMA       LMA       File off  Algn
  0 .data         000000dc  00800100  0000293e  000029d2  2**0
                  CONTENTS, ALLOC, LOAD, DATA
  1 .text         0000293e  00000000  00000000  00000094  2**1
                  CONTENTS, ALLOC, LOAD, READONLY, CODE
  2 .bss          00000043  008001dc  008001dc  00002aae  2**0
                  ALLOC
  3 .comment      00000030  00000000  00000000  00002aae  2**0
                  CONTENTS, READONLY
  4 .note.gnu.avr.deviceinfo 00000040  00000000  00000000  00002ae0  2**2
                  CONTENTS, READONLY
  5 .debug_aranges 00000230  00000000  00000000  00002b20  2**0
                  CONTENTS, READONLY, DEBUGGING
  6 .debug_info   000034b4  00000000  00000000  00002d50  2**0
                  CONTENTS, READONLY, DEBUGGING
  7 .debug_abbrev 0000123a  00000000  00000000  00006204  2**0
                  CONTENTS, READONLY, DEBUGGING
  8 .debug_line   00001642  00000000  00000000  0000743e  2**0
                  CONTENTS, READONLY, DEBUGGING
  9 .debug_frame  00000620  00000000  00000000  00008a80  2**2
                  CONTENTS, READONLY, DEBUGGING
 10 .debug_str    00000c74  00000000  00000000  000090a0  2**0
                  CONTENTS, READONLY, DEBUGGING
 11 .debug_loc    000021f5  00000000  00000000  00009d14  2**0
                  CONTENTS, READONLY, DEBUGGING
 12 .debug_ranges 000001f0  00000000  00000000  0000bf09  2**0
                  CONTENTS, READONLY, DEBUGGING

Disassembly of section .text:

00000000 <__vectors>:
       0:	0c 94 04 08 	jmp	0x1008	; 0x1008 <__ctors_end>
       4:	0c 94 96 0b 	jmp	0x172c	; 0x172c <__vector_1>
       8:	0c 94 21 08 	jmp	0x1042	; 0x1042 <__bad_interrupt>
       c:	0c 94 21 08 	jmp	0x1042	; 0x1042 <__bad_interrupt>
      10:	0c 94 21 08 	jmp	0x1042	; 0x1042 <__bad_interrupt>
      14:	0c 94 21 08 	jmp	0x1042	; 0x1042 <__bad_interrupt>
      18:	0c 94 21 08 	jmp	0x1042	; 0x1042 <__bad_interrupt>
      1c:	0c 94 21 08 	jmp	0x1042	; 0x1042 <__bad_interrupt>
      20:	0c 94 21 08 	jmp	0x1042	; 0x1042 <__bad_interrupt>
      24:	0c 94 21 08 	jmp	0x1042	; 0x1042 <__bad_interrupt>
      28:	0c 94 21 08 	jmp	0x1042	; 0x1042 <__bad_interrupt>
      2c:	0c 94 21 08 	jmp	0x1042	; 0x1042 <__bad_interrupt>
      30:	0c 94 21 08 	jmp	0x1042	; 0x1042 <__bad_interrupt>
      34:	0c 94 21 08 	jmp	0x1042	; 0x1042 <__bad_interrupt>
      38:	0c 94 21 08 	jmp	0x1042	; 0x1042 <__bad_interrupt>
      3c:	0c 94 21 08 	jmp	0x1042	; 0x1042 <__bad_interrupt>
      40:	0c 94 21 08 	jmp	0x1042	; 0x1042 <__bad_interrupt>
      44:	0c 94 21 08 	jmp	0x1042	; 0x1042 <__bad_interrupt>
      48:	0c 94 21 08 	jmp	0x1042	; 0x1042 <__bad_interrupt>
      4c:	0c 94 21 08 	jmp	0x1042	; 0x1042 <__bad_interrupt>
      50:	0c 94 21 08 	jmp	0x1042	; 0x1042 <__bad_interrupt>
      54:	0c 94 21 08 	jmp	0x1042	; 0x1042 <__bad_interrupt>
      58:	0c 94 21 08 	jmp	0x1042	; 0x1042 <__bad_interrupt>
      5c:	0c 94 21 08 	jmp	0x1042	; 0x1042 <__bad_interrupt>
      60:	0c 94 21 08 	jmp	0x1042	; 0x1042 <__bad_interrupt>
      64:	0c 94 21 08 	jmp	0x1042	; 0x1042 <__bad_interrupt>

00000068 <__trampolines_end>:
      68:	52 00       	.word	0x0052	; ????
      6a:	08 00       	.word	0x0008	; ????
      6c:	52 00       	.word	0x0052	; ????
      6e:	08 00       	.word	0x0008	; ????
      70:	a5 00       	.word	0x00a5	; ????
      72:	08 00       	.word	0x0008	; ????
      74:	52 00       	.word	0x0052	; ????
      76:	08 00       	.word	0x0008	; ????
      78:	52 00       	.word	0x0052	; ????
      7a:	08 00       	.word	0x0008	; ????
      7c:	93 00       	.word	0x0093	; ????
      7e:	08 00       	.word	0x0008	; ????
      80:	52 00       	.word	0x0052	; ????
      82:	08 00       	.word	0x0008	; ????
      84:	52 00       	.word	0x0052	; ????
      86:	08 00       	.word	0x0008	; ????
      88:	83 00       	.word	0x0083	; ????
      8a:	08 00       	.word	0x0008	; ????
      8c:	52 00       	.word	0x0052	; ????
      8e:	08 00       	.word	0x0008	; ????
      90:	52 00       	.word	0x0052	; ????
      92:	08 00       	.word	0x0008	; ????
      94:	75 00       	.word	0x0075	; ????
      96:	08 00       	.word	0x0008	; ????
      98:	52 00       	.word	0x0052	; ????
      9a:	08 00       	.word	0x0008	; ????
      9c:	52 00       	.word	0x0052	; ????
      9e:	08 00       	.word	0x0008	; ????
      a0:	7b 00       	.word	0x007b	; ????
      a2:	08 00       	.word	0x0008	; ????
      a4:	83 00       	.word	0x0083	; ????
      a6:	08 00       	.word	0x0008	; ????
      a8:	52 00       	.word	0x0052	; ????
      aa:	08 00       	.word	0x0008	; ????
      ac:	52 00       	.word	0x0052	; ????
      ae:	08 00       	.word	0x0008	; ????
      b0:	a5 00       	.word	0x00a5	; ????
      b2:	08 00       	.word	0x0008	; ????
      b4:	52 00       	.word	0x0052	; ????
      b6:	08 00       	.word	0x0008	; ????
      b8:	52 00       	.word	0x0052	; ????
      ba:	08 00       	.word	0x0008	; ????
      bc:	93 00       	.word	0x0093	; ????
      be:	08 00       	.word	0x0008	; ????
      c0:	52 00       	.word	0x0052	; ????
      c2:	08 00       	.word	0x0008	; ????
      c4:	52 00       	.word	0x0052	; ????
      c6:	08 00       	.word	0x0008	; ????
      c8:	83 00       	.word	0x0083	; ????
      ca:	08 00       	.word	0x0008	; ????
      cc:	52 00       	.word	0x0052	; ????
      ce:	08 00       	.word	0x0008	; ????
      d0:	52 00       	.word	0x0052	; ????
      d2:	08 00       	.word	0x0008	; ????
      d4:	75 00       	.word	0x0075	; ????
      d6:	fe ff       	.word	0xfffe	; ????
      d8:	52 00       	.word	0x0052	; ????
      da:	08 00       	.word	0x0008	; ????
      dc:	52 00       	.word	0x0052	; ????
      de:	08 00       	.word	0x0008	; ????
      e0:	a5 00       	.word	0x00a5	; ????
      e2:	08 00       	.word	0x0008	; ????
      e4:	52 00       	.word	0x0052	; ????
      e6:	08 00       	.word	0x0008	; ????
      e8:	52 00       	.word	0x0052	; ????
      ea:	08 00       	.word	0x0008	; ????
      ec:	93 00       	.word	0x0093	; ????
      ee:	08 00       	.word	0x0008	; ????
      f0:	52 00       	.word	0x0052	; ????
      f2:	08 00       	.word	0x0008	; ????
      f4:	52 00       	.word	0x0052	; ????
      f6:	08 00       	.word	0x0008	; ????
      f8:	83 00       	.word	0x0083	; ????
      fa:	08 00       	.word	0x0008	; ????
      fc:	52 00       	.word	0x0052	; ????
      fe:	08 00       	.word	0x0008	; ????
     100:	52 00       	.word	0x0052	; ????
     102:	08 00       	.word	0x0008	; ????
     104:	75 00       	.word	0x0075	; ????
     106:	08 00       	.word	0x0008	; ????
     108:	52 00       	.word	0x0052	; ????
     10a:	08 00       	.word	0x0008	; ????
     10c:	52 00       	.word	0x0052	; ????
     10e:	08 00       	.word	0x0008	; ????
     110:	7b 00       	.word	0x007b	; ????
     112:	08 00       	.word	0x0008	; ????
     114:	83 00       	.word	0x0083	; ????
     116:	08 00       	.word	0x0008	; ????
     118:	52 00       	.word	0x0052	; ????
     11a:	08 00       	.word	0x0008	; ????
     11c:	52 00       	.word	0x0052	; ????
     11e:	08 00       	.word	0x0008	; ????
     120:	a5 00       	.word	0x00a5	; ????
     122:	08 00       	.word	0x0008	; ????
     124:	52 00       	.word	0x0052	; ????
     126:	08 00       	.word	0x0008	; ????
     128:	52 00       	.word	0x0052	; ????
     12a:	08 00       	.word	0x0008	; ????
     12c:	93 00       	.word	0x0093	; ????
     12e:	08 00       	.word	0x0008	; ????
     130:	52 00       	.word	0x0052	; ????
     132:	08 00       	.word	0x0008	; ????
     134:	52 00       	.word	0x0052	; ????
     136:	08 00       	.word	0x0008	; ????
     138:	83 00       	.word	0x0083	; ????
     13a:	08 00       	.word	0x0008	; ????
     13c:	52 00       	.word	0x0052	; ????
     13e:	08 00       	.word	0x0008	; ????
     140:	52 00       	.word	0x0052	; ????
     142:	08 00       	.word	0x0008	; ????
     144:	75 00       	.word	0x0075	; ????
     146:	fe ff       	.word	0xfffe	; ????
     148:	52 00       	.word	0x0052	; ????
     14a:	08 00       	.word	0x0008	; ????
     14c:	52 00       	.word	0x0052	; ????
     14e:	08 00       	.word	0x0008	; ????
     150:	a5 00       	.word	0x00a5	; ????
     152:	08 00       	.word	0x0008	; ????
     154:	52 00       	.word	0x0052	; ????
     156:	08 00       	.word	0x0008	; ????
     158:	52 00       	.word	0x0052	; ????
     15a:	08 00       	.word	0x0008	; ????
     15c:	93 00       	.word	0x0093	; ????
     15e:	08 00       	.word	0x0008	; ????
     160:	52 00       	.word	0x0052	; ????
     162:	08 00       	.word	0x0008	; ????
     164:	52 00       	.word	0x0052	; ????
     166:	08 00       	.word	0x0008	; ????
     168:	83 00       	.word	0x0083	; ????
     16a:	08 00       	.word	0x0008	; ????
     16c:	52 00       	.word	0x0052	; ????
     16e:	08 00       	.word	0x0008	; ????
     170:	52 00       	.word	0x0052	; ????
     172:	08 00       	.word	0x0008	; ????
     174:	75 00       	.word	0x0075	; ????
     176:	08 00       	.word	0x0008	; ????
     178:	52 00       	.word	0x0052	; ????
     17a:	08 00       	.word	0x0008	; ????
     17c:	52 00       	.word	0x0052	; ????
     17e:	08 00       	.word	0x0008	; ????
     180:	7b 00       	.word	0x007b	; ????
     182:	08 00       	.word	0x0008	; ????
     184:	83 00       	.word	0x0083	; ????
     186:	08 00       	.word	0x0008	; ????
     188:	52 00       	.word	0x0052	; ????
     18a:	08 00       	.word	0x0008	; ????
     18c:	52 00       	.word	0x0052	; ????
     18e:	08 00       	.word	0x0008	; ????
     190:	a5 00       	.word	0x00a5	; ????
     192:	08 00       	.word	0x0008	; ????
     194:	52 00       	.word	0x0052	; ????
     196:	08 00       	.word	0x0008	; ????
     198:	52 00       	.word	0x0052	; ????
     19a:	08 00       	.word	0x0008	; ????
     19c:	93 00       	.word	0x0093	; ????
     19e:	08 00       	.word	0x0008	; ????
     1a0:	52 00       	.word	0x0052	; ????
     1a2:	08 00       	.word	0x0008	; ????
     1a4:	52 00       	.word	0x0052	; ????
     1a6:	08 00       	.word	0x0008	; ????
     1a8:	83 00       	.word	0x0083	; ????
     1aa:	08 00       	.word	0x0008	; ????
     1ac:	52 00       	.word	0x0052	; ????
     1ae:	08 00       	.word	0x0008	; ????
     1b0:	52 00       	.word	0x0052	; ????
     1b2:	08 00       	.word	0x0008	; ????
     1b4:	75 00       	.word	0x0075	; ????
     1b6:	fe ff       	.word	0xfffe	; ????
     1b8:	52 00       	.word	0x0052	; ????
     1ba:	08 00       	.word	0x0008	; ????
     1bc:	52 00       	.word	0x0052	; ????
     1be:	08 00       	.word	0x0008	; ????
     1c0:	a5 00       	.word	0x00a5	; ????
     1c2:	08 00       	.word	0x0008	; ????
     1c4:	52 00       	.word	0x0052	; ????
     1c6:	08 00       	.word	0x0008	; ????
     1c8:	52 00       	.word	0x0052	; ????
     1ca:	08 00       	.word	0x0008	; ????
     1cc:	93 00       	.word	0x0093	; ????
     1ce:	08 00       	.word	0x0008	; ????
     1d0:	52 00       	.word	0x0052	; ????
     1d2:	08 00       	.word	0x0008	; ????
     1d4:	52 00       	.word	0x0052	; ????
     1d6:	08 00       	.word	0x0008	; ????
     1d8:	83 00       	.word	0x0083	; ????
     1da:	08 00       	.word	0x0008	; ????
     1dc:	52 00       	.word	0x0052	; ????
     1de:	08 00       	.word	0x0008	; ????
     1e0:	52 00       	.word	0x0052	; ????
     1e2:	08 00       	.word	0x0008	; ????
     1e4:	75 00       	.word	0x0075	; ????
     1e6:	08 00       	.word	0x0008	; ????
     1e8:	52 00       	.word	0x0052	; ????
     1ea:	08 00       	.word	0x0008	; ????
     1ec:	52 00       	.word	0x0052	; ????
     1ee:	08 00       	.word	0x0008	; ????
     1f0:	7b 00       	.word	0x007b	; ????
     1f2:	08 00       	.word	0x0008	; ????
     1f4:	83 00       	.word	0x0083	; ????
     1f6:	08 00       	.word	0x0008	; ????
     1f8:	52 00       	.word	0x0052	; ????
     1fa:	08 00       	.word	0x0008	; ????
     1fc:	52 00       	.word	0x0052	; ????
     1fe:	08 00       	.word	0x0008	; ????
     200:	a5 00       	.word	0x00a5	; ????
     202:	08 00       	.word	0x0008	; ????
     204:	52 00       	.word	0x0052	; ????
     206:	08 00       	.word	0x0008	; ????
     208:	52 00       	.word	0x0052	; ????
     20a:	08 00       	.word	0x0008	; ????
     20c:	93 00       	.word	0x0093	; ????
     20e:	08 00       	.word	0x0008	; ????
     210:	52 00       	.word	0x0052	; ????
     212:	08 00       	.word	0x0008	; ????
     214:	52 00       	.word	0x0052	; ????
     216:	08 00       	.word	0x0008	; ????
     218:	b9 00       	.word	0x00b9	; ????
     21a:	f0 ff       	sbrs	r31, 0
     21c:	93 00       	.word	0x0093	; ????
     21e:	f0 ff       	sbrs	r31, 0
     220:	7b 00       	.word	0x007b	; ????
     222:	f0 ff       	sbrs	r31, 0
     224:	dc 00       	.word	0x00dc	; ????
     226:	f0 ff       	sbrs	r31, 0
     228:	b9 00       	.word	0x00b9	; ????
     22a:	f0 ff       	sbrs	r31, 0
     22c:	7b 00       	.word	0x007b	; ????
     22e:	f0 ff       	sbrs	r31, 0
     230:	93 00       	.word	0x0093	; ????
     232:	f0 ff       	sbrs	r31, 0
     234:	b9 00       	.word	0x00b9	; ????
     236:	f0 ff       	sbrs	r31, 0
     238:	dc 00       	.word	0x00dc	; ????
     23a:	f0 ff       	sbrs	r31, 0
     23c:	b9 00       	.word	0x00b9	; ????
     23e:	f0 ff       	sbrs	r31, 0
     240:	93 00       	.word	0x0093	; ????
     242:	f0 ff       	sbrs	r31, 0
     244:	7b 00       	.word	0x007b	; ????
     246:	f0 ff       	sbrs	r31, 0
	...
     388:	b8 01       	movw	r22, r16
     38a:	04 00       	.word	0x0004	; ????
     38c:	b8 01       	movw	r22, r16
     38e:	04 00       	.word	0x0004	; ????
     390:	b8 01       	movw	r22, r16
     392:	04 00       	.word	0x0004	; ????
     394:	5d 01       	movw	r10, r26
     396:	f8 ff       	.word	0xfff8	; ????
     398:	0b 02       	muls	r16, r27
     39a:	10 00       	.word	0x0010	; ????
     39c:	b8 01       	movw	r22, r16
     39e:	04 00       	.word	0x0004	; ????
     3a0:	5d 01       	movw	r10, r26
     3a2:	f8 ff       	.word	0xfff8	; ????
     3a4:	0b 02       	muls	r16, r27
     3a6:	10 00       	.word	0x0010	; ????
     3a8:	b8 01       	movw	r22, r16
     3aa:	02 00       	.word	0x0002	; ????
     3ac:	93 02       	muls	r25, r19
     3ae:	04 00       	.word	0x0004	; ????
     3b0:	93 02       	muls	r25, r19
     3b2:	04 00       	.word	0x0004	; ????
     3b4:	93 02       	muls	r25, r19
     3b6:	04 00       	.word	0x0004	; ????
     3b8:	ba 02       	muls	r27, r26
     3ba:	f8 ff       	.word	0xfff8	; ????
     3bc:	0b 02       	muls	r16, r27
     3be:	10 00       	.word	0x0010	; ????
     3c0:	b8 01       	movw	r22, r16
     3c2:	04 00       	.word	0x0004	; ????
     3c4:	5d 01       	movw	r10, r26
     3c6:	f8 ff       	.word	0xfff8	; ????
     3c8:	0b 02       	muls	r16, r27
     3ca:	10 00       	.word	0x0010	; ????
     3cc:	b8 01       	movw	r22, r16
     3ce:	02 00       	.word	0x0002	; ????
     3d0:	70 03       	mulsu	r23, r16
     3d2:	04 00       	.word	0x0004	; ????
     3d4:	b8 01       	movw	r22, r16
     3d6:	f8 ff       	.word	0xfff8	; ????
     3d8:	b8 01       	movw	r22, r16
     3da:	10 00       	.word	0x0010	; ????
     3dc:	70 03       	mulsu	r23, r16
     3de:	04 00       	.word	0x0004	; ????
     3e0:	3f 03       	fmul	r19, r23
     3e2:	f8 ff       	.word	0xfff8	; ????
     3e4:	10 03       	mulsu	r17, r16
     3e6:	10 00       	.word	0x0010	; ????
     3e8:	6e 02       	muls	r22, r30
     3ea:	10 00       	.word	0x0010	; ????
     3ec:	4b 02       	muls	r20, r27
     3ee:	10 00       	.word	0x0010	; ????
     3f0:	6e 02       	muls	r22, r30
     3f2:	08 00       	.word	0x0008	; ????
     3f4:	00 00       	nop
     3f6:	08 00       	.word	0x0008	; ????
     3f8:	b8 01       	movw	r22, r16
     3fa:	08 00       	.word	0x0008	; ????
     3fc:	6e 02       	muls	r22, r30
     3fe:	04 00       	.word	0x0004	; ????
     400:	4b 02       	muls	r20, r27
     402:	f8 ff       	.word	0xfff8	; ????
     404:	2a 02       	muls	r18, r26
     406:	10 00       	.word	0x0010	; ????
     408:	0b 02       	muls	r16, r27
     40a:	10 00       	.word	0x0010	; ????
     40c:	ee 01       	movw	r28, r28
     40e:	10 00       	.word	0x0010	; ????
     410:	0b 02       	muls	r16, r27
     412:	10 00       	.word	0x0010	; ????
     414:	00 00       	nop
     416:	08 00       	.word	0x0008	; ????
     418:	5d 01       	movw	r10, r26
     41a:	08 00       	.word	0x0008	; ????
     41c:	9f 01       	movw	r18, r30
     41e:	04 00       	.word	0x0004	; ????
     420:	5d 01       	movw	r10, r26
     422:	f8 ff       	.word	0xfff8	; ????
     424:	b8 01       	movw	r22, r16
     426:	f0 ff       	sbrs	r31, 0
     428:	0b 02       	muls	r16, r27
     42a:	04 00       	.word	0x0004	; ????
     42c:	b8 01       	movw	r22, r16
     42e:	f8 ff       	.word	0xfff8	; ????
     430:	0b 02       	muls	r16, r27
     432:	10 00       	.word	0x0010	; ????
     434:	93 02       	muls	r25, r19
     436:	02 00       	.word	0x0002	; ????
     438:	70 03       	mulsu	r23, r16
     43a:	04 00       	.word	0x0004	; ????
     43c:	b8 01       	movw	r22, r16
     43e:	f8 ff       	.word	0xfff8	; ????
     440:	b8 01       	movw	r22, r16
     442:	10 00       	.word	0x0010	; ????
     444:	70 03       	mulsu	r23, r16
     446:	04 00       	.word	0x0004	; ????
     448:	3f 03       	fmul	r19, r23
     44a:	f8 ff       	.word	0xfff8	; ????
     44c:	10 03       	mulsu	r17, r16
     44e:	10 00       	.word	0x0010	; ????
     450:	6e 02       	muls	r22, r30
     452:	10 00       	.word	0x0010	; ????
     454:	4b 02       	muls	r20, r27
     456:	10 00       	.word	0x0010	; ????
     458:	6e 02       	muls	r22, r30
     45a:	08 00       	.word	0x0008	; ????
     45c:	00 00       	nop
     45e:	08 00       	.word	0x0008	; ????
     460:	b8 01       	movw	r22, r16
     462:	08 00       	.word	0x0008	; ????
     464:	6e 02       	muls	r22, r30
     466:	04 00       	.word	0x0004	; ????
     468:	4b 02       	muls	r20, r27
     46a:	f8 ff       	.word	0xfff8	; ????
     46c:	2a 02       	muls	r18, r26
     46e:	10 00       	.word	0x0010	; ????
     470:	0b 02       	muls	r16, r27
     472:	10 00       	.word	0x0010	; ????
     474:	ee 01       	movw	r28, r28
     476:	10 00       	.word	0x0010	; ????
     478:	0b 02       	muls	r16, r27
     47a:	10 00       	.word	0x0010	; ????
     47c:	00 00       	nop
     47e:	08 00       	.word	0x0008	; ????
     480:	5d 01       	movw	r10, r26
     482:	08 00       	.word	0x0008	; ????
     484:	9f 01       	movw	r18, r30
     486:	04 00       	.word	0x0004	; ????
     488:	5d 01       	movw	r10, r26
     48a:	f8 ff       	.word	0xfff8	; ????
     48c:	b8 01       	movw	r22, r16
     48e:	f0 ff       	sbrs	r31, 0
     490:	b8 01       	movw	r22, r16
     492:	04 00       	.word	0x0004	; ????
     494:	5d 01       	movw	r10, r26
     496:	f8 ff       	.word	0xfff8	; ????
     498:	0b 02       	muls	r16, r27
     49a:	10 00       	.word	0x0010	; ????
     49c:	b8 01       	movw	r22, r16
     49e:	02 00       	.word	0x0002	; ????
	...
     6a8:	88 01       	movw	r16, r16
     6aa:	08 00       	.word	0x0008	; ????
     6ac:	06 01       	movw	r0, r12
     6ae:	08 00       	.word	0x0008	; ????
     6b0:	37 01       	movw	r6, r14
     6b2:	10 00       	.word	0x0010	; ????
     6b4:	5d 01       	movw	r10, r26
     6b6:	10 00       	.word	0x0010	; ????
     6b8:	88 01       	movw	r16, r16
     6ba:	08 00       	.word	0x0008	; ????
     6bc:	06 01       	movw	r0, r12
     6be:	08 00       	.word	0x0008	; ????
     6c0:	37 01       	movw	r6, r14
     6c2:	10 00       	.word	0x0010	; ????
     6c4:	5d 01       	movw	r10, r26
     6c6:	10 00       	.word	0x0010	; ????
     6c8:	88 01       	movw	r16, r16
     6ca:	08 00       	.word	0x0008	; ????
     6cc:	06 01       	movw	r0, r12
     6ce:	08 00       	.word	0x0008	; ????
     6d0:	37 01       	movw	r6, r14
     6d2:	10 00       	.word	0x0010	; ????
     6d4:	5d 01       	movw	r10, r26
     6d6:	10 00       	.word	0x0010	; ????
     6d8:	88 01       	movw	r16, r16
     6da:	08 00       	.word	0x0008	; ????
     6dc:	06 01       	movw	r0, r12
     6de:	08 00       	.word	0x0008	; ????
     6e0:	37 01       	movw	r6, r14
     6e2:	10 00       	.word	0x0010	; ????
     6e4:	5d 01       	movw	r10, r26
     6e6:	10 00       	.word	0x0010	; ????
     6e8:	88 01       	movw	r16, r16
     6ea:	08 00       	.word	0x0008	; ????
     6ec:	06 01       	movw	r0, r12
     6ee:	08 00       	.word	0x0008	; ????
     6f0:	4a 01       	movw	r8, r20
     6f2:	10 00       	.word	0x0010	; ????
     6f4:	5d 01       	movw	r10, r26
     6f6:	10 00       	.word	0x0010	; ????
     6f8:	88 01       	movw	r16, r16
     6fa:	08 00       	.word	0x0008	; ????
     6fc:	06 01       	movw	r0, r12
     6fe:	08 00       	.word	0x0008	; ????
     700:	4a 01       	movw	r8, r20
     702:	10 00       	.word	0x0010	; ????
     704:	5d 01       	movw	r10, r26
     706:	10 00       	.word	0x0010	; ????
     708:	88 01       	movw	r16, r16
     70a:	08 00       	.word	0x0008	; ????
     70c:	06 01       	movw	r0, r12
     70e:	08 00       	.word	0x0008	; ????
     710:	4a 01       	movw	r8, r20
     712:	10 00       	.word	0x0010	; ????
     714:	5d 01       	movw	r10, r26
     716:	10 00       	.word	0x0010	; ????
     718:	88 01       	movw	r16, r16
     71a:	08 00       	.word	0x0008	; ????
     71c:	06 01       	movw	r0, r12
     71e:	08 00       	.word	0x0008	; ????
     720:	4a 01       	movw	r8, r20
     722:	10 00       	.word	0x0010	; ????
     724:	5d 01       	movw	r10, r26
     726:	10 00       	.word	0x0010	; ????
     728:	88 01       	movw	r16, r16
     72a:	fc ff       	.word	0xfffc	; ????
     72c:	06 01       	movw	r0, r12
     72e:	fc ff       	.word	0xfffc	; ????
     730:	37 01       	movw	r6, r14
     732:	10 00       	.word	0x0010	; ????
     734:	5d 01       	movw	r10, r26
     736:	10 00       	.word	0x0010	; ????
     738:	88 01       	movw	r16, r16
     73a:	04 00       	.word	0x0004	; ????
     73c:	06 01       	movw	r0, r12
     73e:	04 00       	.word	0x0004	; ????
     740:	37 01       	movw	r6, r14
     742:	10 00       	.word	0x0010	; ????
     744:	5d 01       	movw	r10, r26
     746:	10 00       	.word	0x0010	; ????
     748:	26 01       	movw	r4, r12
     74a:	ff ff       	.word	0xffff	; ????
     74c:	5d 01       	movw	r10, r26
     74e:	fc ff       	.word	0xfffc	; ????
     750:	e9 00       	.word	0x00e9	; ????
     752:	fc ff       	.word	0xfffc	; ????
     754:	37 01       	movw	r6, r14
     756:	10 00       	.word	0x0010	; ????
     758:	26 01       	movw	r4, r12
     75a:	10 00       	.word	0x0010	; ????
     75c:	5d 01       	movw	r10, r26
     75e:	04 00       	.word	0x0004	; ????
     760:	e9 00       	.word	0x00e9	; ????
     762:	fc ff       	.word	0xfffc	; ????
     764:	37 01       	movw	r6, r14
     766:	10 00       	.word	0x0010	; ????
     768:	26 01       	movw	r4, r12
     76a:	10 00       	.word	0x0010	; ????
     76c:	06 01       	movw	r0, r12
     76e:	ff ff       	.word	0xffff	; ????
     770:	88 01       	movw	r16, r16
     772:	fc ff       	.word	0xfffc	; ????
     774:	06 01       	movw	r0, r12
     776:	fc ff       	.word	0xfffc	; ????
     778:	37 01       	movw	r6, r14
     77a:	10 00       	.word	0x0010	; ????
     77c:	5d 01       	movw	r10, r26
     77e:	10 00       	.word	0x0010	; ????
     780:	88 01       	movw	r16, r16
     782:	04 00       	.word	0x0004	; ????
     784:	06 01       	movw	r0, r12
     786:	04 00       	.word	0x0004	; ????
     788:	37 01       	movw	r6, r14
     78a:	10 00       	.word	0x0010	; ????
     78c:	5d 01       	movw	r10, r26
     78e:	10 00       	.word	0x0010	; ????
     790:	26 01       	movw	r4, r12
     792:	ff ff       	.word	0xffff	; ????
     794:	5d 01       	movw	r10, r26
     796:	fc ff       	.word	0xfffc	; ????
     798:	e9 00       	.word	0x00e9	; ????
     79a:	fc ff       	.word	0xfffc	; ????
     79c:	37 01       	movw	r6, r14
     79e:	10 00       	.word	0x0010	; ????
     7a0:	26 01       	movw	r4, r12
     7a2:	10 00       	.word	0x0010	; ????
     7a4:	5d 01       	movw	r10, r26
     7a6:	04 00       	.word	0x0004	; ????
     7a8:	e9 00       	.word	0x00e9	; ????
     7aa:	fc ff       	.word	0xfffc	; ????
     7ac:	37 01       	movw	r6, r14
     7ae:	10 00       	.word	0x0010	; ????
     7b0:	26 01       	movw	r4, r12
     7b2:	10 00       	.word	0x0010	; ????
     7b4:	06 01       	movw	r0, r12
     7b6:	ff ff       	.word	0xffff	; ????
     7b8:	88 01       	movw	r16, r16
     7ba:	fc ff       	.word	0xfffc	; ????
     7bc:	06 01       	movw	r0, r12
     7be:	fc ff       	.word	0xfffc	; ????
     7c0:	37 01       	movw	r6, r14
     7c2:	10 00       	.word	0x0010	; ????
     7c4:	5d 01       	movw	r10, r26
     7c6:	10 00       	.word	0x0010	; ????
     7c8:	88 01       	movw	r16, r16
     7ca:	04 00       	.word	0x0004	; ????
     7cc:	06 01       	movw	r0, r12
     7ce:	04 00       	.word	0x0004	; ????
     7d0:	37 01       	movw	r6, r14
     7d2:	10 00       	.word	0x0010	; ????
     7d4:	5d 01       	movw	r10, r26
     7d6:	10 00       	.word	0x0010	; ????
     7d8:	26 01       	movw	r4, r12
     7da:	fe ff       	.word	0xfffe	; ????
     7dc:	5d 01       	movw	r10, r26
     7de:	fc ff       	.word	0xfffc	; ????
     7e0:	e9 00       	.word	0x00e9	; ????
     7e2:	fc ff       	.word	0xfffc	; ????
     7e4:	26 01       	movw	r4, r12
     7e6:	f8 ff       	.word	0xfff8	; ????
     7e8:	37 01       	movw	r6, r14
     7ea:	f8 ff       	.word	0xfff8	; ????
     7ec:	26 01       	movw	r4, r12
     7ee:	f8 ff       	.word	0xfff8	; ????
     7f0:	e9 00       	.word	0x00e9	; ????
     7f2:	f8 ff       	.word	0xfff8	; ????
     7f4:	06 01       	movw	r0, r12
     7f6:	ff ff       	.word	0xffff	; ????
     7f8:	0b 02       	muls	r16, r27
     7fa:	fe ff       	.word	0xfffe	; ????
     7fc:	d2 01       	movw	r26, r4
     7fe:	fe ff       	.word	0xfffe	; ????
     800:	06 01       	movw	r0, r12
     802:	fe ff       	.word	0xfffe	; ????
     804:	88 01       	movw	r16, r16
     806:	fe ff       	.word	0xfffe	; ????
     808:	37 01       	movw	r6, r14
     80a:	fe ff       	.word	0xfffe	; ????
     80c:	37 01       	movw	r6, r14
     80e:	fc ff       	.word	0xfffc	; ????
     810:	5d 01       	movw	r10, r26
     812:	fc ff       	.word	0xfffc	; ????
     814:	88 01       	movw	r16, r16
     816:	ff ff       	.word	0xffff	; ????
     818:	0b 02       	muls	r16, r27
     81a:	fe ff       	.word	0xfffe	; ????
     81c:	d2 01       	movw	r26, r4
     81e:	fe ff       	.word	0xfffe	; ????
     820:	06 01       	movw	r0, r12
     822:	fe ff       	.word	0xfffe	; ????
     824:	88 01       	movw	r16, r16
     826:	fe ff       	.word	0xfffe	; ????
     828:	37 01       	movw	r6, r14
     82a:	fe ff       	.word	0xfffe	; ????
     82c:	37 01       	movw	r6, r14
     82e:	fc ff       	.word	0xfffc	; ????
     830:	26 01       	movw	r4, r12
     832:	fc ff       	.word	0xfffc	; ????
     834:	0b 02       	muls	r16, r27
     836:	08 00       	.word	0x0008	; ????
     838:	88 01       	movw	r16, r16
     83a:	08 00       	.word	0x0008	; ????
     83c:	9f 01       	movw	r18, r30
     83e:	10 00       	.word	0x0010	; ????
     840:	d2 01       	movw	r26, r4
     842:	10 00       	.word	0x0010	; ????
     844:	0b 02       	muls	r16, r27
     846:	08 00       	.word	0x0008	; ????
     848:	88 01       	movw	r16, r16
     84a:	08 00       	.word	0x0008	; ????
     84c:	9f 01       	movw	r18, r30
     84e:	10 00       	.word	0x0010	; ????
     850:	d2 01       	movw	r26, r4
     852:	10 00       	.word	0x0010	; ????
     854:	0b 02       	muls	r16, r27
     856:	08 00       	.word	0x0008	; ????
     858:	88 01       	movw	r16, r16
     85a:	08 00       	.word	0x0008	; ????
     85c:	9f 01       	movw	r18, r30
     85e:	10 00       	.word	0x0010	; ????
     860:	d2 01       	movw	r26, r4
     862:	10 00       	.word	0x0010	; ????
     864:	0b 02       	muls	r16, r27
     866:	08 00       	.word	0x0008	; ????
     868:	88 01       	movw	r16, r16
     86a:	08 00       	.word	0x0008	; ????
     86c:	9f 01       	movw	r18, r30
     86e:	10 00       	.word	0x0010	; ????
     870:	d2 01       	movw	r26, r4
     872:	10 00       	.word	0x0010	; ????
     874:	00 00       	nop
     876:	04 00       	.word	0x0004	; ????
     878:	3f 03       	fmul	r19, r23
     87a:	10 00       	.word	0x0010	; ????
     87c:	a4 03       	fmuls	r18, r20
     87e:	10 00       	.word	0x0010	; ????
     880:	17 04       	cpc	r1, r7
     882:	08 00       	.word	0x0008	; ????
     884:	10 03       	mulsu	r17, r16
     886:	08 00       	.word	0x0008	; ????
     888:	3f 03       	fmul	r19, r23
     88a:	10 00       	.word	0x0010	; ????
     88c:	a4 03       	fmuls	r18, r20
     88e:	10 00       	.word	0x0010	; ????
     890:	17 04       	cpc	r1, r7
     892:	08 00       	.word	0x0008	; ????
     894:	10 03       	mulsu	r17, r16
     896:	10 00       	.word	0x0010	; ????
     898:	3f 03       	fmul	r19, r23
     89a:	10 00       	.word	0x0010	; ????
     89c:	a4 03       	fmuls	r18, r20
     89e:	10 00       	.word	0x0010	; ????
     8a0:	17 04       	cpc	r1, r7
     8a2:	08 00       	.word	0x0008	; ????
     8a4:	10 03       	mulsu	r17, r16
     8a6:	08 00       	.word	0x0008	; ????
     8a8:	3f 03       	fmul	r19, r23
     8aa:	10 00       	.word	0x0010	; ????
     8ac:	a4 03       	fmuls	r18, r20
     8ae:	10 00       	.word	0x0010	; ????
	...
     9c8:	4a 01       	movw	r8, r20
     9ca:	fc ff       	.word	0xfffc	; ????
     9cc:	00 00       	nop
     9ce:	08 00       	.word	0x0008	; ????
     9d0:	72 01       	movw	r14, r4
     9d2:	08 00       	.word	0x0008	; ????
     9d4:	88 01       	movw	r16, r16
     9d6:	fc ff       	.word	0xfffc	; ????
     9d8:	00 00       	nop
     9da:	08 00       	.word	0x0008	; ????
     9dc:	37 01       	movw	r6, r14
     9de:	08 00       	.word	0x0008	; ????
     9e0:	4a 01       	movw	r8, r20
     9e2:	f8 ff       	.word	0xfff8	; ????
     9e4:	72 01       	movw	r14, r4
     9e6:	08 00       	.word	0x0008	; ????
     9e8:	88 01       	movw	r16, r16
     9ea:	f8 ff       	.word	0xfff8	; ????
     9ec:	0b 02       	muls	r16, r27
     9ee:	08 00       	.word	0x0008	; ????
     9f0:	ee 01       	movw	r28, r28
     9f2:	f8 ff       	.word	0xfff8	; ????
     9f4:	4a 01       	movw	r8, r20
     9f6:	08 00       	.word	0x0008	; ????
     9f8:	88 01       	movw	r16, r16
     9fa:	f8 ff       	.word	0xfff8	; ????
     9fc:	ee 01       	movw	r28, r28
     9fe:	08 00       	.word	0x0008	; ????
     a00:	d2 01       	movw	r26, r4
     a02:	02 00       	.word	0x0002	; ????
     a04:	b8 01       	movw	r22, r16
     a06:	f0 ff       	sbrs	r31, 0
     a08:	88 01       	movw	r16, r16
     a0a:	f0 ff       	sbrs	r31, 0
     a0c:	4a 01       	movw	r8, r20
     a0e:	f0 ff       	sbrs	r31, 0
     a10:	26 01       	movw	r4, r12
     a12:	f0 ff       	sbrs	r31, 0
     a14:	4a 01       	movw	r8, r20
     a16:	02 00       	.word	0x0002	; ????
     a18:	00 00       	nop
     a1a:	04 00       	.word	0x0004	; ????
     a1c:	00 00       	nop
     a1e:	08 00       	.word	0x0008	; ????
     a20:	37 01       	movw	r6, r14
     a22:	04 00       	.word	0x0004	; ????
     a24:	4a 01       	movw	r8, r20
     a26:	fc ff       	.word	0xfffc	; ????
     a28:	00 00       	nop
     a2a:	08 00       	.word	0x0008	; ????
     a2c:	72 01       	movw	r14, r4
     a2e:	08 00       	.word	0x0008	; ????
     a30:	88 01       	movw	r16, r16
     a32:	fc ff       	.word	0xfffc	; ????
     a34:	00 00       	nop
     a36:	08 00       	.word	0x0008	; ????
     a38:	37 01       	movw	r6, r14
     a3a:	08 00       	.word	0x0008	; ????
     a3c:	4a 01       	movw	r8, r20
     a3e:	f8 ff       	.word	0xfff8	; ????
     a40:	72 01       	movw	r14, r4
     a42:	08 00       	.word	0x0008	; ????
     a44:	88 01       	movw	r16, r16
     a46:	f8 ff       	.word	0xfff8	; ????
     a48:	0b 02       	muls	r16, r27
     a4a:	08 00       	.word	0x0008	; ????
     a4c:	ee 01       	movw	r28, r28
     a4e:	f8 ff       	.word	0xfff8	; ????
     a50:	88 01       	movw	r16, r16
     a52:	08 00       	.word	0x0008	; ????
     a54:	ee 01       	movw	r28, r28
     a56:	f8 ff       	.word	0xfff8	; ????
     a58:	93 02       	muls	r25, r19
     a5a:	08 00       	.word	0x0008	; ????
     a5c:	6e 02       	muls	r22, r30
     a5e:	01 00       	.word	0x0001	; ????
     a60:	4b 02       	muls	r20, r27
     a62:	02 00       	.word	0x0002	; ????
     a64:	00 00       	nop
     a66:	04 00       	.word	0x0004	; ????
     a68:	00 00       	nop
     a6a:	08 00       	.word	0x0008	; ????
     a6c:	37 01       	movw	r6, r14
     a6e:	08 00       	.word	0x0008	; ????
     a70:	4a 01       	movw	r8, r20
     a72:	fc ff       	.word	0xfffc	; ????
     a74:	00 00       	nop
     a76:	08 00       	.word	0x0008	; ????
     a78:	72 01       	movw	r14, r4
     a7a:	08 00       	.word	0x0008	; ????
     a7c:	88 01       	movw	r16, r16
     a7e:	fc ff       	.word	0xfffc	; ????
     a80:	00 00       	nop
     a82:	08 00       	.word	0x0008	; ????
     a84:	37 01       	movw	r6, r14
     a86:	08 00       	.word	0x0008	; ????
     a88:	4a 01       	movw	r8, r20
     a8a:	f8 ff       	.word	0xfff8	; ????
     a8c:	72 01       	movw	r14, r4
     a8e:	08 00       	.word	0x0008	; ????
     a90:	88 01       	movw	r16, r16
     a92:	f8 ff       	.word	0xfff8	; ????
     a94:	0b 02       	muls	r16, r27
     a96:	08 00       	.word	0x0008	; ????
     a98:	ee 01       	movw	r28, r28
     a9a:	f8 ff       	.word	0xfff8	; ????
     a9c:	4a 01       	movw	r8, r20
     a9e:	08 00       	.word	0x0008	; ????
     aa0:	88 01       	movw	r16, r16
     aa2:	f8 ff       	.word	0xfff8	; ????
     aa4:	ee 01       	movw	r28, r28
     aa6:	08 00       	.word	0x0008	; ????
     aa8:	d2 01       	movw	r26, r4
     aaa:	02 00       	.word	0x0002	; ????
     aac:	b8 01       	movw	r22, r16
     aae:	f0 ff       	sbrs	r31, 0
     ab0:	88 01       	movw	r16, r16
     ab2:	f0 ff       	sbrs	r31, 0
     ab4:	4a 01       	movw	r8, r20
     ab6:	f0 ff       	sbrs	r31, 0
     ab8:	26 01       	movw	r4, r12
     aba:	f0 ff       	sbrs	r31, 0
     abc:	4a 01       	movw	r8, r20
     abe:	fc ff       	.word	0xfffc	; ????
     ac0:	00 00       	nop
     ac2:	04 00       	.word	0x0004	; ????
     ac4:	00 00       	nop
     ac6:	04 00       	.word	0x0004	; ????
     ac8:	93 02       	muls	r25, r19
     aca:	f8 ff       	.word	0xfff8	; ????
     acc:	4b 02       	muls	r20, r27
     ace:	08 00       	.word	0x0008	; ????
     ad0:	ee 01       	movw	r28, r28
     ad2:	f8 ff       	.word	0xfff8	; ????
     ad4:	b8 01       	movw	r22, r16
     ad6:	08 00       	.word	0x0008	; ????
     ad8:	88 01       	movw	r16, r16
     ada:	f8 ff       	.word	0xfff8	; ????
     adc:	4a 01       	movw	r8, r20
     ade:	f8 ff       	.word	0xfff8	; ????
     ae0:	d2 01       	movw	r26, r4
     ae2:	10 00       	.word	0x0010	; ????
     ae4:	b8 01       	movw	r22, r16
     ae6:	f8 ff       	.word	0xfff8	; ????
     ae8:	d2 01       	movw	r26, r4
     aea:	10 00       	.word	0x0010	; ????
     aec:	b8 01       	movw	r22, r16
     aee:	f8 ff       	.word	0xfff8	; ????
     af0:	d2 01       	movw	r26, r4
     af2:	10 00       	.word	0x0010	; ????
     af4:	b8 01       	movw	r22, r16
     af6:	f8 ff       	.word	0xfff8	; ????
     af8:	d2 01       	movw	r26, r4
     afa:	10 00       	.word	0x0010	; ????
     afc:	b8 01       	movw	r22, r16
     afe:	f8 ff       	.word	0xfff8	; ????
     b00:	88 01       	movw	r16, r16
     b02:	f0 ff       	sbrs	r31, 0
     b04:	4a 01       	movw	r8, r20
     b06:	f0 ff       	sbrs	r31, 0
     b08:	26 01       	movw	r4, r12
     b0a:	f0 ff       	sbrs	r31, 0
     b0c:	4a 01       	movw	r8, r20
     b0e:	10 00       	.word	0x0010	; ????
     b10:	4a 01       	movw	r8, r20
     b12:	10 00       	.word	0x0010	; ????
     b14:	4a 01       	movw	r8, r20
     b16:	02 00       	.word	0x0002	; ????
	...
     ce8:	00 00       	nop
     cea:	04 00       	.word	0x0004	; ????
     cec:	00 00       	nop
     cee:	08 00       	.word	0x0008	; ????
     cf0:	00 00       	nop
     cf2:	08 00       	.word	0x0008	; ????
     cf4:	00 00       	nop
     cf6:	08 00       	.word	0x0008	; ????
     cf8:	4a 01       	movw	r8, r20
     cfa:	08 00       	.word	0x0008	; ????
     cfc:	b8 01       	movw	r22, r16
     cfe:	08 00       	.word	0x0008	; ????
     d00:	0b 02       	muls	r16, r27
     d02:	08 00       	.word	0x0008	; ????
     d04:	ee 01       	movw	r28, r28
     d06:	08 00       	.word	0x0008	; ????
     d08:	b8 01       	movw	r22, r16
     d0a:	08 00       	.word	0x0008	; ????
     d0c:	0b 02       	muls	r16, r27
     d0e:	08 00       	.word	0x0008	; ????
     d10:	b8 01       	movw	r22, r16
     d12:	08 00       	.word	0x0008	; ????
     d14:	ee 01       	movw	r28, r28
     d16:	08 00       	.word	0x0008	; ????
     d18:	b8 01       	movw	r22, r16
     d1a:	08 00       	.word	0x0008	; ????
     d1c:	5d 01       	movw	r10, r26
     d1e:	08 00       	.word	0x0008	; ????
     d20:	88 01       	movw	r16, r16
     d22:	08 00       	.word	0x0008	; ????
     d24:	4a 01       	movw	r8, r20
     d26:	02 00       	.word	0x0002	; ????
     d28:	4a 01       	movw	r8, r20
     d2a:	08 00       	.word	0x0008	; ????
     d2c:	b8 01       	movw	r22, r16
     d2e:	08 00       	.word	0x0008	; ????
     d30:	0b 02       	muls	r16, r27
     d32:	08 00       	.word	0x0008	; ????
     d34:	ee 01       	movw	r28, r28
     d36:	08 00       	.word	0x0008	; ????
     d38:	b8 01       	movw	r22, r16
     d3a:	08 00       	.word	0x0008	; ????
     d3c:	0b 02       	muls	r16, r27
     d3e:	08 00       	.word	0x0008	; ????
     d40:	b8 01       	movw	r22, r16
     d42:	08 00       	.word	0x0008	; ????
     d44:	0b 02       	muls	r16, r27
     d46:	08 00       	.word	0x0008	; ????
     d48:	b8 01       	movw	r22, r16
     d4a:	08 00       	.word	0x0008	; ????
     d4c:	4a 01       	movw	r8, r20
     d4e:	08 00       	.word	0x0008	; ????
     d50:	37 01       	movw	r6, r14
     d52:	08 00       	.word	0x0008	; ????
     d54:	26 01       	movw	r4, r12
     d56:	02 00       	.word	0x0002	; ????
     d58:	26 01       	movw	r4, r12
     d5a:	08 00       	.word	0x0008	; ????
     d5c:	5d 01       	movw	r10, r26
     d5e:	08 00       	.word	0x0008	; ????
     d60:	9f 01       	movw	r18, r30
     d62:	08 00       	.word	0x0008	; ????
     d64:	ee 01       	movw	r28, r28
     d66:	02 00       	.word	0x0002	; ????
     d68:	26 01       	movw	r4, r12
     d6a:	08 00       	.word	0x0008	; ????
     d6c:	5d 01       	movw	r10, r26
     d6e:	08 00       	.word	0x0008	; ????
     d70:	9f 01       	movw	r18, r30
     d72:	08 00       	.word	0x0008	; ????
     d74:	b8 01       	movw	r22, r16
     d76:	02 00       	.word	0x0002	; ????
     d78:	06 01       	movw	r0, r12
     d7a:	08 00       	.word	0x0008	; ????
     d7c:	06 01       	movw	r0, r12
     d7e:	08 00       	.word	0x0008	; ????
     d80:	88 01       	movw	r16, r16
     d82:	08 00       	.word	0x0008	; ????
     d84:	5d 01       	movw	r10, r26
     d86:	08 00       	.word	0x0008	; ????
     d88:	4a 01       	movw	r8, r20
     d8a:	08 00       	.word	0x0008	; ????
     d8c:	88 01       	movw	r16, r16
     d8e:	08 00       	.word	0x0008	; ????
     d90:	5d 01       	movw	r10, r26
     d92:	08 00       	.word	0x0008	; ????
     d94:	5d 01       	movw	r10, r26
     d96:	08 00       	.word	0x0008	; ????
     d98:	4a 01       	movw	r8, r20
     d9a:	08 00       	.word	0x0008	; ????
     d9c:	4a 01       	movw	r8, r20
     d9e:	08 00       	.word	0x0008	; ????
     da0:	9f 01       	movw	r18, r30
     da2:	08 00       	.word	0x0008	; ????
     da4:	b8 01       	movw	r22, r16
     da6:	02 00       	.word	0x0002	; ????
     da8:	00 00       	nop
     daa:	08 00       	.word	0x0008	; ????
     dac:	b8 01       	movw	r22, r16
     dae:	08 00       	.word	0x0008	; ????
     db0:	b8 01       	movw	r22, r16
     db2:	08 00       	.word	0x0008	; ????
     db4:	9f 01       	movw	r18, r30
     db6:	08 00       	.word	0x0008	; ????
     db8:	88 01       	movw	r16, r16
     dba:	02 00       	.word	0x0002	; ????
     dbc:	ee 01       	movw	r28, r28
     dbe:	08 00       	.word	0x0008	; ????
     dc0:	b8 01       	movw	r22, r16
     dc2:	08 00       	.word	0x0008	; ????
     dc4:	5d 01       	movw	r10, r26
     dc6:	08 00       	.word	0x0008	; ????
     dc8:	4a 01       	movw	r8, r20
     dca:	02 00       	.word	0x0002	; ????
     dcc:	4a 01       	movw	r8, r20
     dce:	08 00       	.word	0x0008	; ????
     dd0:	88 01       	movw	r16, r16
     dd2:	08 00       	.word	0x0008	; ????
     dd4:	4a 01       	movw	r8, r20
     dd6:	08 00       	.word	0x0008	; ????
     dd8:	26 01       	movw	r4, r12
     dda:	02 00       	.word	0x0002	; ????
     ddc:	26 01       	movw	r4, r12
     dde:	08 00       	.word	0x0008	; ????
     de0:	26 01       	movw	r4, r12
     de2:	08 00       	.word	0x0008	; ????
     de4:	5d 01       	movw	r10, r26
     de6:	08 00       	.word	0x0008	; ????
     de8:	37 01       	movw	r6, r14
     dea:	08 00       	.word	0x0008	; ????
     dec:	4a 01       	movw	r8, r20
     dee:	02 00       	.word	0x0002	; ????
     df0:	00 00       	nop
     df2:	08 00       	.word	0x0008	; ????
     df4:	4a 01       	movw	r8, r20
     df6:	08 00       	.word	0x0008	; ????
     df8:	b8 01       	movw	r22, r16
     dfa:	08 00       	.word	0x0008	; ????
     dfc:	0b 02       	muls	r16, r27
     dfe:	08 00       	.word	0x0008	; ????
     e00:	ee 01       	movw	r28, r28
     e02:	08 00       	.word	0x0008	; ????
     e04:	b8 01       	movw	r22, r16
     e06:	08 00       	.word	0x0008	; ????
     e08:	0b 02       	muls	r16, r27
     e0a:	08 00       	.word	0x0008	; ????
     e0c:	b8 01       	movw	r22, r16
     e0e:	08 00       	.word	0x0008	; ????
     e10:	ee 01       	movw	r28, r28
     e12:	08 00       	.word	0x0008	; ????
     e14:	b8 01       	movw	r22, r16
     e16:	08 00       	.word	0x0008	; ????
     e18:	5d 01       	movw	r10, r26
     e1a:	08 00       	.word	0x0008	; ????
     e1c:	88 01       	movw	r16, r16
     e1e:	08 00       	.word	0x0008	; ????
     e20:	4a 01       	movw	r8, r20
     e22:	02 00       	.word	0x0002	; ????
     e24:	4a 01       	movw	r8, r20
     e26:	08 00       	.word	0x0008	; ????
     e28:	b8 01       	movw	r22, r16
     e2a:	08 00       	.word	0x0008	; ????
     e2c:	0b 02       	muls	r16, r27
     e2e:	08 00       	.word	0x0008	; ????
     e30:	ee 01       	movw	r28, r28
     e32:	08 00       	.word	0x0008	; ????
     e34:	b8 01       	movw	r22, r16
     e36:	08 00       	.word	0x0008	; ????
     e38:	0b 02       	muls	r16, r27
     e3a:	08 00       	.word	0x0008	; ????
     e3c:	b8 01       	movw	r22, r16
     e3e:	08 00       	.word	0x0008	; ????
     e40:	0b 02       	muls	r16, r27
     e42:	08 00       	.word	0x0008	; ????
     e44:	b8 01       	movw	r22, r16
     e46:	08 00       	.word	0x0008	; ????
     e48:	4a 01       	movw	r8, r20
     e4a:	08 00       	.word	0x0008	; ????
     e4c:	37 01       	movw	r6, r14
     e4e:	08 00       	.word	0x0008	; ????
     e50:	26 01       	movw	r4, r12
     e52:	02 00       	.word	0x0002	; ????
     e54:	26 01       	movw	r4, r12
     e56:	08 00       	.word	0x0008	; ????
     e58:	5d 01       	movw	r10, r26
     e5a:	08 00       	.word	0x0008	; ????
     e5c:	9f 01       	movw	r18, r30
     e5e:	08 00       	.word	0x0008	; ????
     e60:	ee 01       	movw	r28, r28
     e62:	02 00       	.word	0x0002	; ????
     e64:	26 01       	movw	r4, r12
     e66:	08 00       	.word	0x0008	; ????
     e68:	5d 01       	movw	r10, r26
     e6a:	08 00       	.word	0x0008	; ????
     e6c:	9f 01       	movw	r18, r30
     e6e:	08 00       	.word	0x0008	; ????
     e70:	b8 01       	movw	r22, r16
     e72:	02 00       	.word	0x0002	; ????
     e74:	06 01       	movw	r0, r12
     e76:	08 00       	.word	0x0008	; ????
     e78:	06 01       	movw	r0, r12
     e7a:	08 00       	.word	0x0008	; ????
     e7c:	88 01       	movw	r16, r16
     e7e:	08 00       	.word	0x0008	; ????
     e80:	5d 01       	movw	r10, r26
     e82:	08 00       	.word	0x0008	; ????
     e84:	4a 01       	movw	r8, r20
     e86:	08 00       	.word	0x0008	; ????
     e88:	88 01       	movw	r16, r16
     e8a:	08 00       	.word	0x0008	; ????
     e8c:	5d 01       	movw	r10, r26
     e8e:	08 00       	.word	0x0008	; ????
     e90:	5d 01       	movw	r10, r26
     e92:	08 00       	.word	0x0008	; ????
     e94:	4a 01       	movw	r8, r20
     e96:	08 00       	.word	0x0008	; ????
     e98:	4a 01       	movw	r8, r20
     e9a:	08 00       	.word	0x0008	; ????
     e9c:	9f 01       	movw	r18, r30
     e9e:	08 00       	.word	0x0008	; ????
     ea0:	b8 01       	movw	r22, r16
     ea2:	02 00       	.word	0x0002	; ????
     ea4:	00 00       	nop
     ea6:	08 00       	.word	0x0008	; ????
     ea8:	b8 01       	movw	r22, r16
     eaa:	08 00       	.word	0x0008	; ????
     eac:	b8 01       	movw	r22, r16
     eae:	08 00       	.word	0x0008	; ????
     eb0:	9f 01       	movw	r18, r30
     eb2:	08 00       	.word	0x0008	; ????
     eb4:	88 01       	movw	r16, r16
     eb6:	02 00       	.word	0x0002	; ????
     eb8:	ee 01       	movw	r28, r28
     eba:	08 00       	.word	0x0008	; ????
     ebc:	b8 01       	movw	r22, r16
     ebe:	08 00       	.word	0x0008	; ????
     ec0:	5d 01       	movw	r10, r26
     ec2:	08 00       	.word	0x0008	; ????
     ec4:	4a 01       	movw	r8, r20
     ec6:	02 00       	.word	0x0002	; ????
     ec8:	4a 01       	movw	r8, r20
     eca:	08 00       	.word	0x0008	; ????
     ecc:	88 01       	movw	r16, r16
     ece:	08 00       	.word	0x0008	; ????
     ed0:	4a 01       	movw	r8, r20
     ed2:	08 00       	.word	0x0008	; ????
     ed4:	26 01       	movw	r4, r12
     ed6:	02 00       	.word	0x0002	; ????
     ed8:	26 01       	movw	r4, r12
     eda:	08 00       	.word	0x0008	; ????
     edc:	26 01       	movw	r4, r12
     ede:	08 00       	.word	0x0008	; ????
     ee0:	5d 01       	movw	r10, r26
     ee2:	08 00       	.word	0x0008	; ????
     ee4:	37 01       	movw	r6, r14
     ee6:	08 00       	.word	0x0008	; ????
     ee8:	4a 01       	movw	r8, r20
     eea:	02 00       	.word	0x0002	; ????
	...

00001008 <__ctors_end>:
    1008:	11 24       	eor	r1, r1
    100a:	1f be       	out	0x3f, r1	; 63
    100c:	cf ef       	ldi	r28, 0xFF	; 255
    100e:	d8 e0       	ldi	r29, 0x08	; 8
    1010:	de bf       	out	0x3e, r29	; 62
    1012:	cd bf       	out	0x3d, r28	; 61

00001014 <__do_copy_data>:
    1014:	11 e0       	ldi	r17, 0x01	; 1
    1016:	a0 e0       	ldi	r26, 0x00	; 0
    1018:	b1 e0       	ldi	r27, 0x01	; 1
    101a:	ee e3       	ldi	r30, 0x3E	; 62
    101c:	f9 e2       	ldi	r31, 0x29	; 41
    101e:	02 c0       	rjmp	.+4      	; 0x1024 <__do_copy_data+0x10>
    1020:	05 90       	lpm	r0, Z+
    1022:	0d 92       	st	X+, r0
    1024:	ac 3d       	cpi	r26, 0xDC	; 220
    1026:	b1 07       	cpc	r27, r17
    1028:	d9 f7       	brne	.-10     	; 0x1020 <__do_copy_data+0xc>

0000102a <__do_clear_bss>:
    102a:	22 e0       	ldi	r18, 0x02	; 2
    102c:	ac ed       	ldi	r26, 0xDC	; 220
    102e:	b1 e0       	ldi	r27, 0x01	; 1
    1030:	01 c0       	rjmp	.+2      	; 0x1034 <.do_clear_bss_start>

00001032 <.do_clear_bss_loop>:
    1032:	1d 92       	st	X+, r1

00001034 <.do_clear_bss_start>:
    1034:	af 31       	cpi	r26, 0x1F	; 31
    1036:	b2 07       	cpc	r27, r18
    1038:	e1 f7       	brne	.-8      	; 0x1032 <.do_clear_bss_loop>
    103a:	0e 94 fe 11 	call	0x23fc	; 0x23fc <main>
    103e:	0c 94 9d 14 	jmp	0x293a	; 0x293a <_exit>

00001042 <__bad_interrupt>:
    1042:	0c 94 00 00 	jmp	0	; 0x0 <__vectors>

00001046 <_Z7powerOfii>:
		return true;
	}
	else{
		return false;
	}
}
    1046:	9c 01       	movw	r18, r24
    1048:	81 e0       	ldi	r24, 0x01	; 1
    104a:	90 e0       	ldi	r25, 0x00	; 0
    104c:	61 15       	cp	r22, r1
    104e:	71 05       	cpc	r23, r1
    1050:	59 f0       	breq	.+22     	; 0x1068 <_Z7powerOfii+0x22>
    1052:	ac 01       	movw	r20, r24
    1054:	42 9f       	mul	r20, r18
    1056:	c0 01       	movw	r24, r0
    1058:	43 9f       	mul	r20, r19
    105a:	90 0d       	add	r25, r0
    105c:	52 9f       	mul	r21, r18
    105e:	90 0d       	add	r25, r0
    1060:	11 24       	eor	r1, r1
    1062:	61 50       	subi	r22, 0x01	; 1
    1064:	71 09       	sbc	r23, r1
    1066:	f2 cf       	rjmp	.-28     	; 0x104c <_Z7powerOfii+0x6>
    1068:	08 95       	ret

0000106a <_Z9ringAlarmv>:
void ringAlarm(){
	LCD_Clear();
    106a:	0e 94 42 0d 	call	0x1a84	; 0x1a84 <_Z9LCD_Clearv>
	LCD_String("RING!!");
    106e:	8b e8       	ldi	r24, 0x8B	; 139
    1070:	91 e0       	ldi	r25, 0x01	; 1
    1072:	0e 94 2c 0d 	call	0x1a58	; 0x1a58 <_Z10LCD_StringPc>
	play(1);				//Trigger buzzer. Can be interrupted by the int1 button.
    1076:	81 e0       	ldi	r24, 0x01	; 1
    1078:	90 e0       	ldi	r25, 0x00	; 0
    107a:	0e 94 bf 0b 	call	0x177e	; 0x177e <_Z4playi>
    107e:	08 95       	ret

00001080 <_Z8setAlarmi>:
	//_delay_ms(2000);
}
void setAlarm(int alarm_time){
	if (alarm_time<2400){
    1080:	80 36       	cpi	r24, 0x60	; 96
    1082:	29 e0       	ldi	r18, 0x09	; 9
    1084:	92 07       	cpc	r25, r18
    1086:	8c f4       	brge	.+34     	; 0x10aa <_Z8setAlarmi+0x2a>
		alarmArray[numberOfAlarms] = alarm_time;
    1088:	20 91 f7 01 	lds	r18, 0x01F7	; 0x8001f7 <numberOfAlarms>
    108c:	30 91 f8 01 	lds	r19, 0x01F8	; 0x8001f8 <numberOfAlarms+0x1>
    1090:	f9 01       	movw	r30, r18
    1092:	ee 0f       	add	r30, r30
    1094:	ff 1f       	adc	r31, r31
    1096:	ed 51       	subi	r30, 0x1D	; 29
    1098:	fe 4f       	sbci	r31, 0xFE	; 254
    109a:	91 83       	std	Z+1, r25	; 0x01
    109c:	80 83       	st	Z, r24
		numberOfAlarms++;
    109e:	2f 5f       	subi	r18, 0xFF	; 255
    10a0:	3f 4f       	sbci	r19, 0xFF	; 255
    10a2:	30 93 f8 01 	sts	0x01F8, r19	; 0x8001f8 <numberOfAlarms+0x1>
    10a6:	20 93 f7 01 	sts	0x01F7, r18	; 0x8001f7 <numberOfAlarms>
    10aa:	08 95       	ret

000010ac <_Z16updateAlarmArrayi>:
	}
}
void updateAlarmArray(int removeAlarm){
	for (int i=0;i<numberOfAlarms;i++){
    10ac:	20 e0       	ldi	r18, 0x00	; 0
    10ae:	30 e0       	ldi	r19, 0x00	; 0
    10b0:	40 91 f7 01 	lds	r20, 0x01F7	; 0x8001f7 <numberOfAlarms>
    10b4:	50 91 f8 01 	lds	r21, 0x01F8	; 0x8001f8 <numberOfAlarms+0x1>
    10b8:	24 17       	cp	r18, r20
    10ba:	35 07       	cpc	r19, r21
    10bc:	ac f4       	brge	.+42     	; 0x10e8 <_Z16updateAlarmArrayi+0x3c>
		if (i<removeAlarm){
    10be:	28 17       	cp	r18, r24
    10c0:	39 07       	cpc	r19, r25
    10c2:	7c f0       	brlt	.+30     	; 0x10e2 <_Z16updateAlarmArrayi+0x36>
			alarmArray[i] = alarmArray[i];
		}
		else{
			alarmArray[i] = alarmArray[i+1];
    10c4:	f9 01       	movw	r30, r18
    10c6:	31 96       	adiw	r30, 0x01	; 1
    10c8:	ee 0f       	add	r30, r30
    10ca:	ff 1f       	adc	r31, r31
    10cc:	ed 51       	subi	r30, 0x1D	; 29
    10ce:	fe 4f       	sbci	r31, 0xFE	; 254
    10d0:	40 81       	ld	r20, Z
    10d2:	51 81       	ldd	r21, Z+1	; 0x01
    10d4:	f9 01       	movw	r30, r18
    10d6:	ee 0f       	add	r30, r30
    10d8:	ff 1f       	adc	r31, r31
    10da:	ed 51       	subi	r30, 0x1D	; 29
    10dc:	fe 4f       	sbci	r31, 0xFE	; 254
    10de:	51 83       	std	Z+1, r21	; 0x01
    10e0:	40 83       	st	Z, r20
		alarmArray[numberOfAlarms] = alarm_time;
		numberOfAlarms++;
	}
}
void updateAlarmArray(int removeAlarm){
	for (int i=0;i<numberOfAlarms;i++){
    10e2:	2f 5f       	subi	r18, 0xFF	; 255
    10e4:	3f 4f       	sbci	r19, 0xFF	; 255
    10e6:	e4 cf       	rjmp	.-56     	; 0x10b0 <_Z16updateAlarmArrayi+0x4>
    10e8:	08 95       	ret

000010ea <_Z10checkAlarmv>:
		else{
			alarmArray[i] = alarmArray[i+1];
		}
	}
}
void checkAlarm(){
    10ea:	cf 92       	push	r12
    10ec:	df 92       	push	r13
    10ee:	ef 92       	push	r14
    10f0:	ff 92       	push	r15
    10f2:	0f 93       	push	r16
    10f4:	1f 93       	push	r17
    10f6:	cf 93       	push	r28
    10f8:	df 93       	push	r29
	if (numberOfAlarms != 0){
    10fa:	80 91 f7 01 	lds	r24, 0x01F7	; 0x8001f7 <numberOfAlarms>
    10fe:	90 91 f8 01 	lds	r25, 0x01F8	; 0x8001f8 <numberOfAlarms+0x1>
    1102:	89 2b       	or	r24, r25
    1104:	09 f4       	brne	.+2      	; 0x1108 <_Z10checkAlarmv+0x1e>
    1106:	4e c0       	rjmp	.+156    	; 0x11a4 <_Z10checkAlarmv+0xba>
		ds1307_getdate(&year, &month, &day, &dayofweek, &hour, &minute, &second);
    1108:	0f 2e       	mov	r0, r31
    110a:	fc ed       	ldi	r31, 0xDC	; 220
    110c:	cf 2e       	mov	r12, r31
    110e:	f1 e0       	ldi	r31, 0x01	; 1
    1110:	df 2e       	mov	r13, r31
    1112:	f0 2d       	mov	r31, r0
    1114:	0f 2e       	mov	r0, r31
    1116:	fd ed       	ldi	r31, 0xDD	; 221
    1118:	ef 2e       	mov	r14, r31
    111a:	f1 e0       	ldi	r31, 0x01	; 1
    111c:	ff 2e       	mov	r15, r31
    111e:	f0 2d       	mov	r31, r0
    1120:	0e ed       	ldi	r16, 0xDE	; 222
    1122:	11 e0       	ldi	r17, 0x01	; 1
    1124:	2f ed       	ldi	r18, 0xDF	; 223
    1126:	31 e0       	ldi	r19, 0x01	; 1
    1128:	40 ee       	ldi	r20, 0xE0	; 224
    112a:	51 e0       	ldi	r21, 0x01	; 1
    112c:	61 ee       	ldi	r22, 0xE1	; 225
    112e:	71 e0       	ldi	r23, 0x01	; 1
    1130:	82 ee       	ldi	r24, 0xE2	; 226
    1132:	91 e0       	ldi	r25, 0x01	; 1
    1134:	0e 94 e7 10 	call	0x21ce	; 0x21ce <_Z14ds1307_getdatePhS_S_S_S_S_S_>
		for (int i = 0; i <= numberOfAlarms;i++){
    1138:	c0 e0       	ldi	r28, 0x00	; 0
    113a:	d0 e0       	ldi	r29, 0x00	; 0
    113c:	80 91 f7 01 	lds	r24, 0x01F7	; 0x8001f7 <numberOfAlarms>
    1140:	90 91 f8 01 	lds	r25, 0x01F8	; 0x8001f8 <numberOfAlarms+0x1>
    1144:	8c 17       	cp	r24, r28
    1146:	9d 07       	cpc	r25, r29
    1148:	6c f1       	brlt	.+90     	; 0x11a4 <_Z10checkAlarmv+0xba>
			if (alarmArray[i]/100 == hour && alarmArray[i]%100 == minute){
    114a:	fe 01       	movw	r30, r28
    114c:	ee 0f       	add	r30, r30
    114e:	ff 1f       	adc	r31, r31
    1150:	ed 51       	subi	r30, 0x1D	; 29
    1152:	fe 4f       	sbci	r31, 0xFE	; 254
    1154:	20 81       	ld	r18, Z
    1156:	31 81       	ldd	r19, Z+1	; 0x01
    1158:	c9 01       	movw	r24, r18
    115a:	64 e6       	ldi	r22, 0x64	; 100
    115c:	70 e0       	ldi	r23, 0x00	; 0
    115e:	0e 94 40 14 	call	0x2880	; 0x2880 <__divmodhi4>
    1162:	80 91 de 01 	lds	r24, 0x01DE	; 0x8001de <hour>
    1166:	90 e0       	ldi	r25, 0x00	; 0
    1168:	68 17       	cp	r22, r24
    116a:	79 07       	cpc	r23, r25
    116c:	c9 f4       	brne	.+50     	; 0x11a0 <_Z10checkAlarmv+0xb6>
    116e:	c9 01       	movw	r24, r18
    1170:	64 e6       	ldi	r22, 0x64	; 100
    1172:	70 e0       	ldi	r23, 0x00	; 0
    1174:	0e 94 40 14 	call	0x2880	; 0x2880 <__divmodhi4>
    1178:	20 91 dd 01 	lds	r18, 0x01DD	; 0x8001dd <minute>
    117c:	30 e0       	ldi	r19, 0x00	; 0
    117e:	82 17       	cp	r24, r18
    1180:	93 07       	cpc	r25, r19
    1182:	71 f4       	brne	.+28     	; 0x11a0 <_Z10checkAlarmv+0xb6>
				ringAlarm();
    1184:	0e 94 35 08 	call	0x106a	; 0x106a <_Z9ringAlarmv>
				updateAlarmArray(i);
    1188:	ce 01       	movw	r24, r28
    118a:	0e 94 56 08 	call	0x10ac	; 0x10ac <_Z16updateAlarmArrayi>
				numberOfAlarms--;
    118e:	80 91 f7 01 	lds	r24, 0x01F7	; 0x8001f7 <numberOfAlarms>
    1192:	90 91 f8 01 	lds	r25, 0x01F8	; 0x8001f8 <numberOfAlarms+0x1>
    1196:	01 97       	sbiw	r24, 0x01	; 1
    1198:	90 93 f8 01 	sts	0x01F8, r25	; 0x8001f8 <numberOfAlarms+0x1>
    119c:	80 93 f7 01 	sts	0x01F7, r24	; 0x8001f7 <numberOfAlarms>
	}
}
void checkAlarm(){
	if (numberOfAlarms != 0){
		ds1307_getdate(&year, &month, &day, &dayofweek, &hour, &minute, &second);
		for (int i = 0; i <= numberOfAlarms;i++){
    11a0:	21 96       	adiw	r28, 0x01	; 1
    11a2:	cc cf       	rjmp	.-104    	; 0x113c <_Z10checkAlarmv+0x52>
				numberOfAlarms--;
			}
		}
		
	}
}
    11a4:	df 91       	pop	r29
    11a6:	cf 91       	pop	r28
    11a8:	1f 91       	pop	r17
    11aa:	0f 91       	pop	r16
    11ac:	ff 90       	pop	r15
    11ae:	ef 90       	pop	r14
    11b0:	df 90       	pop	r13
    11b2:	cf 90       	pop	r12
    11b4:	08 95       	ret

000011b6 <_Z6getDayiii>:
	int s = clockTime[5];
	if ((0<y) & (y<99) & (0<m)&(m<13) & (0<d)&(d<32) & (0<=h)&(h<24) & (0<=M)&(M<60) & (0<=s)&(s<60)){
		ds1307_setdate(y, m, d, D, h, M, s);
	}
}
int getDay(int y, int m, int d){
    11b6:	cf 93       	push	r28
    11b8:	df 93       	push	r29
    11ba:	ec 01       	movw	r28, r24
	int days = 0;
	for (int i = 1;i<=y;i++){
    11bc:	21 e0       	ldi	r18, 0x01	; 1
    11be:	30 e0       	ldi	r19, 0x00	; 0
	if ((0<y) & (y<99) & (0<m)&(m<13) & (0<d)&(d<32) & (0<=h)&(h<24) & (0<=M)&(M<60) & (0<=s)&(s<60)){
		ds1307_setdate(y, m, d, D, h, M, s);
	}
}
int getDay(int y, int m, int d){
	int days = 0;
    11c0:	e0 e0       	ldi	r30, 0x00	; 0
    11c2:	f0 e0       	ldi	r31, 0x00	; 0
	for (int i = 1;i<=y;i++){
    11c4:	c2 17       	cp	r28, r18
    11c6:	d3 07       	cpc	r29, r19
    11c8:	6c f0       	brlt	.+26     	; 0x11e4 <_Z6getDayiii+0x2e>
		if (i%4 == 0){
    11ca:	c9 01       	movw	r24, r18
    11cc:	83 70       	andi	r24, 0x03	; 3
    11ce:	99 27       	eor	r25, r25
    11d0:	89 2b       	or	r24, r25
    11d2:	19 f4       	brne	.+6      	; 0x11da <_Z6getDayiii+0x24>
			days+= 366;
    11d4:	e2 59       	subi	r30, 0x92	; 146
    11d6:	fe 4f       	sbci	r31, 0xFE	; 254
    11d8:	02 c0       	rjmp	.+4      	; 0x11de <_Z6getDayiii+0x28>
		}
		else{
			days+= 365;
    11da:	e3 59       	subi	r30, 0x93	; 147
    11dc:	fe 4f       	sbci	r31, 0xFE	; 254
		ds1307_setdate(y, m, d, D, h, M, s);
	}
}
int getDay(int y, int m, int d){
	int days = 0;
	for (int i = 1;i<=y;i++){
    11de:	2f 5f       	subi	r18, 0xFF	; 255
    11e0:	3f 4f       	sbci	r19, 0xFF	; 255
    11e2:	f0 cf       	rjmp	.-32     	; 0x11c4 <_Z6getDayiii+0xe>
    11e4:	20 e0       	ldi	r18, 0x00	; 0
    11e6:	30 e0       	ldi	r19, 0x00	; 0
		else{
			days+= 365;
		}
		
	}
	for (int j = 0;j<m-1;j++){
    11e8:	db 01       	movw	r26, r22
    11ea:	11 97       	sbiw	r26, 0x01	; 1
    11ec:	2a 17       	cp	r18, r26
    11ee:	3b 07       	cpc	r19, r27
    11f0:	3c f5       	brge	.+78     	; 0x1240 <_Z6getDayiii+0x8a>
		if ((y%4==0) & (j == 1)){
    11f2:	91 e0       	ldi	r25, 0x01	; 1
    11f4:	de 01       	movw	r26, r28
    11f6:	a3 70       	andi	r26, 0x03	; 3
    11f8:	bb 27       	eor	r27, r27
    11fa:	ab 2b       	or	r26, r27
    11fc:	09 f0       	breq	.+2      	; 0x1200 <_Z6getDayiii+0x4a>
    11fe:	90 e0       	ldi	r25, 0x00	; 0
    1200:	99 23       	and	r25, r25
    1202:	91 f0       	breq	.+36     	; 0x1228 <_Z6getDayiii+0x72>
    1204:	91 e0       	ldi	r25, 0x01	; 1
    1206:	21 30       	cpi	r18, 0x01	; 1
    1208:	31 05       	cpc	r19, r1
    120a:	09 f0       	breq	.+2      	; 0x120e <_Z6getDayiii+0x58>
    120c:	90 e0       	ldi	r25, 0x00	; 0
    120e:	99 23       	and	r25, r25
    1210:	59 f0       	breq	.+22     	; 0x1228 <_Z6getDayiii+0x72>
			days+=monthsDays[j];
    1212:	d9 01       	movw	r26, r18
    1214:	aa 0f       	add	r26, r26
    1216:	bb 1f       	adc	r27, r27
    1218:	a0 50       	subi	r26, 0x00	; 0
    121a:	bf 4f       	sbci	r27, 0xFF	; 255
    121c:	8d 91       	ld	r24, X+
    121e:	9c 91       	ld	r25, X
    1220:	e8 0f       	add	r30, r24
    1222:	f9 1f       	adc	r31, r25
			days+=1;
    1224:	31 96       	adiw	r30, 0x01	; 1
    1226:	09 c0       	rjmp	.+18     	; 0x123a <_Z6getDayiii+0x84>
		}
		else{
			days +=monthsDays[j];
    1228:	d9 01       	movw	r26, r18
    122a:	aa 0f       	add	r26, r26
    122c:	bb 1f       	adc	r27, r27
    122e:	a0 50       	subi	r26, 0x00	; 0
    1230:	bf 4f       	sbci	r27, 0xFF	; 255
    1232:	8d 91       	ld	r24, X+
    1234:	9c 91       	ld	r25, X
    1236:	e8 0f       	add	r30, r24
    1238:	f9 1f       	adc	r31, r25
		else{
			days+= 365;
		}
		
	}
	for (int j = 0;j<m-1;j++){
    123a:	2f 5f       	subi	r18, 0xFF	; 255
    123c:	3f 4f       	sbci	r19, 0xFF	; 255
    123e:	d4 cf       	rjmp	.-88     	; 0x11e8 <_Z6getDayiii+0x32>
		}
		else{
			days +=monthsDays[j];
		}
	}
	return (days+d+5)%7;
    1240:	4e 0f       	add	r20, r30
    1242:	5f 1f       	adc	r21, r31
    1244:	ca 01       	movw	r24, r20
    1246:	05 96       	adiw	r24, 0x05	; 5
    1248:	67 e0       	ldi	r22, 0x07	; 7
    124a:	70 e0       	ldi	r23, 0x00	; 0
    124c:	0e 94 40 14 	call	0x2880	; 0x2880 <__divmodhi4>
}
    1250:	df 91       	pop	r29
    1252:	cf 91       	pop	r28
    1254:	08 95       	ret

00001256 <_Z12setClockTimePi>:
			}
		}
		
	}
}
void setClockTime(int clockTime[6]){
    1256:	6f 92       	push	r6
    1258:	7f 92       	push	r7
    125a:	8f 92       	push	r8
    125c:	9f 92       	push	r9
    125e:	af 92       	push	r10
    1260:	bf 92       	push	r11
    1262:	cf 92       	push	r12
    1264:	df 92       	push	r13
    1266:	ef 92       	push	r14
    1268:	ff 92       	push	r15
    126a:	0f 93       	push	r16
    126c:	1f 93       	push	r17
    126e:	cf 93       	push	r28
    1270:	df 93       	push	r29
    1272:	ec 01       	movw	r28, r24
	int y = clockTime[0];
    1274:	88 80       	ld	r8, Y
    1276:	99 80       	ldd	r9, Y+1	; 0x01
	int m = clockTime[1];
    1278:	aa 80       	ldd	r10, Y+2	; 0x02
    127a:	bb 80       	ldd	r11, Y+3	; 0x03
	int d = clockTime[2];
    127c:	6c 80       	ldd	r6, Y+4	; 0x04
    127e:	7d 80       	ldd	r7, Y+5	; 0x05
	int D = getDay(y,m,d);
    1280:	a3 01       	movw	r20, r6
    1282:	b5 01       	movw	r22, r10
    1284:	c4 01       	movw	r24, r8
    1286:	0e 94 db 08 	call	0x11b6	; 0x11b6 <_Z6getDayiii>
	int h = clockTime[3];
    128a:	0e 81       	ldd	r16, Y+6	; 0x06
    128c:	1f 81       	ldd	r17, Y+7	; 0x07
	int M = clockTime[4];
    128e:	e8 84       	ldd	r14, Y+8	; 0x08
    1290:	f9 84       	ldd	r15, Y+9	; 0x09
	int s = clockTime[5];
    1292:	ca 84       	ldd	r12, Y+10	; 0x0a
    1294:	db 84       	ldd	r13, Y+11	; 0x0b
	if ((0<y) & (y<99) & (0<m)&(m<13) & (0<d)&(d<32) & (0<=h)&(h<24) & (0<=M)&(M<60) & (0<=s)&(s<60)){
    1296:	94 01       	movw	r18, r8
    1298:	21 50       	subi	r18, 0x01	; 1
    129a:	31 09       	sbc	r19, r1
    129c:	c1 e0       	ldi	r28, 0x01	; 1
    129e:	22 36       	cpi	r18, 0x62	; 98
    12a0:	31 05       	cpc	r19, r1
    12a2:	08 f0       	brcs	.+2      	; 0x12a6 <_Z12setClockTimePi+0x50>
    12a4:	c0 e0       	ldi	r28, 0x00	; 0
    12a6:	21 e0       	ldi	r18, 0x01	; 1
    12a8:	1a 14       	cp	r1, r10
    12aa:	1b 04       	cpc	r1, r11
    12ac:	0c f0       	brlt	.+2      	; 0x12b0 <_Z12setClockTimePi+0x5a>
    12ae:	20 e0       	ldi	r18, 0x00	; 0
    12b0:	61 e0       	ldi	r22, 0x01	; 1
    12b2:	9d e0       	ldi	r25, 0x0D	; 13
    12b4:	a9 16       	cp	r10, r25
    12b6:	b1 04       	cpc	r11, r1
    12b8:	0c f0       	brlt	.+2      	; 0x12bc <_Z12setClockTimePi+0x66>
    12ba:	60 e0       	ldi	r22, 0x00	; 0
    12bc:	71 e0       	ldi	r23, 0x01	; 1
    12be:	16 14       	cp	r1, r6
    12c0:	17 04       	cpc	r1, r7
    12c2:	0c f0       	brlt	.+2      	; 0x12c6 <_Z12setClockTimePi+0x70>
    12c4:	70 e0       	ldi	r23, 0x00	; 0
    12c6:	51 e0       	ldi	r21, 0x01	; 1
    12c8:	90 e2       	ldi	r25, 0x20	; 32
    12ca:	69 16       	cp	r6, r25
    12cc:	71 04       	cpc	r7, r1
    12ce:	0c f0       	brlt	.+2      	; 0x12d2 <_Z12setClockTimePi+0x7c>
    12d0:	50 e0       	ldi	r21, 0x00	; 0
    12d2:	31 2f       	mov	r19, r17
    12d4:	30 95       	com	r19
    12d6:	33 1f       	adc	r19, r19
    12d8:	33 27       	eor	r19, r19
    12da:	33 1f       	adc	r19, r19
    12dc:	41 e0       	ldi	r20, 0x01	; 1
    12de:	08 31       	cpi	r16, 0x18	; 24
    12e0:	11 05       	cpc	r17, r1
    12e2:	0c f0       	brlt	.+2      	; 0x12e6 <_Z12setClockTimePi+0x90>
    12e4:	40 e0       	ldi	r20, 0x00	; 0
    12e6:	af 2d       	mov	r26, r15
    12e8:	a0 95       	com	r26
    12ea:	aa 1f       	adc	r26, r26
    12ec:	aa 27       	eor	r26, r26
    12ee:	aa 1f       	adc	r26, r26
    12f0:	b1 e0       	ldi	r27, 0x01	; 1
    12f2:	9c e3       	ldi	r25, 0x3C	; 60
    12f4:	e9 16       	cp	r14, r25
    12f6:	f1 04       	cpc	r15, r1
    12f8:	0c f0       	brlt	.+2      	; 0x12fc <_Z12setClockTimePi+0xa6>
    12fa:	b0 e0       	ldi	r27, 0x00	; 0
    12fc:	9d 2d       	mov	r25, r13
    12fe:	90 95       	com	r25
    1300:	e9 2f       	mov	r30, r25
    1302:	ee 1f       	adc	r30, r30
    1304:	ee 27       	eor	r30, r30
    1306:	ee 1f       	adc	r30, r30
    1308:	f1 e0       	ldi	r31, 0x01	; 1
    130a:	9c e3       	ldi	r25, 0x3C	; 60
    130c:	c9 16       	cp	r12, r25
    130e:	d1 04       	cpc	r13, r1
    1310:	0c f0       	brlt	.+2      	; 0x1314 <_Z12setClockTimePi+0xbe>
    1312:	f0 e0       	ldi	r31, 0x00	; 0
    1314:	2c 23       	and	r18, r28
    1316:	62 23       	and	r22, r18
    1318:	67 23       	and	r22, r23
    131a:	56 23       	and	r21, r22
    131c:	95 2f       	mov	r25, r21
    131e:	93 23       	and	r25, r19
    1320:	49 23       	and	r20, r25
    1322:	4a 23       	and	r20, r26
    1324:	94 2f       	mov	r25, r20
    1326:	9b 23       	and	r25, r27
    1328:	9e 23       	and	r25, r30
    132a:	41 f0       	breq	.+16     	; 0x133c <_Z12setClockTimePi+0xe6>
    132c:	ff 23       	and	r31, r31
    132e:	31 f0       	breq	.+12     	; 0x133c <_Z12setClockTimePi+0xe6>
		ds1307_setdate(y, m, d, D, h, M, s);
    1330:	28 2f       	mov	r18, r24
    1332:	46 2d       	mov	r20, r6
    1334:	6a 2d       	mov	r22, r10
    1336:	88 2d       	mov	r24, r8
    1338:	0e 94 a6 10 	call	0x214c	; 0x214c <_Z14ds1307_setdatehhhhhhh>
	}
}
    133c:	df 91       	pop	r29
    133e:	cf 91       	pop	r28
    1340:	1f 91       	pop	r17
    1342:	0f 91       	pop	r16
    1344:	ff 90       	pop	r15
    1346:	ef 90       	pop	r14
    1348:	df 90       	pop	r13
    134a:	cf 90       	pop	r12
    134c:	bf 90       	pop	r11
    134e:	af 90       	pop	r10
    1350:	9f 90       	pop	r9
    1352:	8f 90       	pop	r8
    1354:	7f 90       	pop	r7
    1356:	6f 90       	pop	r6
    1358:	08 95       	ret

0000135a <_Z11displayZeroh>:
		}
	}
	return (days+d+5)%7;
}
void displayZero(uint8_t digit){
	if (digit<10){
    135a:	8a 30       	cpi	r24, 0x0A	; 10
    135c:	20 f4       	brcc	.+8      	; 0x1366 <_Z11displayZeroh+0xc>
		LCD_String("0");
    135e:	86 e9       	ldi	r24, 0x96	; 150
    1360:	91 e0       	ldi	r25, 0x01	; 1
    1362:	0e 94 2c 0d 	call	0x1a58	; 0x1a58 <_Z10LCD_StringPc>
    1366:	08 95       	ret

00001368 <_Z11displayTimev>:
	}
}
void displayTime(){
    1368:	cf 92       	push	r12
    136a:	df 92       	push	r13
    136c:	ef 92       	push	r14
    136e:	ff 92       	push	r15
    1370:	0f 93       	push	r16
    1372:	1f 93       	push	r17
    1374:	cf 93       	push	r28
    1376:	df 93       	push	r29
    1378:	cd b7       	in	r28, 0x3d	; 61
    137a:	de b7       	in	r29, 0x3e	; 62
    137c:	ec 97       	sbiw	r28, 0x3c	; 60
    137e:	0f b6       	in	r0, 0x3f	; 63
    1380:	f8 94       	cli
    1382:	de bf       	out	0x3e, r29	; 62
    1384:	0f be       	out	0x3f, r0	; 63
    1386:	cd bf       	out	0x3d, r28	; 61
	ds1307_getdate(&year, &month, &day, &dayofweek, &hour, &minute, &second);
    1388:	0f 2e       	mov	r0, r31
    138a:	fc ed       	ldi	r31, 0xDC	; 220
    138c:	cf 2e       	mov	r12, r31
    138e:	f1 e0       	ldi	r31, 0x01	; 1
    1390:	df 2e       	mov	r13, r31
    1392:	f0 2d       	mov	r31, r0
    1394:	0f 2e       	mov	r0, r31
    1396:	fd ed       	ldi	r31, 0xDD	; 221
    1398:	ef 2e       	mov	r14, r31
    139a:	f1 e0       	ldi	r31, 0x01	; 1
    139c:	ff 2e       	mov	r15, r31
    139e:	f0 2d       	mov	r31, r0
    13a0:	0e ed       	ldi	r16, 0xDE	; 222
    13a2:	11 e0       	ldi	r17, 0x01	; 1
    13a4:	2f ed       	ldi	r18, 0xDF	; 223
    13a6:	31 e0       	ldi	r19, 0x01	; 1
    13a8:	40 ee       	ldi	r20, 0xE0	; 224
    13aa:	51 e0       	ldi	r21, 0x01	; 1
    13ac:	61 ee       	ldi	r22, 0xE1	; 225
    13ae:	71 e0       	ldi	r23, 0x01	; 1
    13b0:	82 ee       	ldi	r24, 0xE2	; 226
    13b2:	91 e0       	ldi	r25, 0x01	; 1
    13b4:	0e 94 e7 10 	call	0x21ce	; 0x21ce <_Z14ds1307_getdatePhS_S_S_S_S_S_>
	char secondS[10];char minuteS[10];char hourS[10];char yearS[10];char monthS[10];char dayS[10];
	itoa(second,secondS,10);itoa(minute,minuteS,10);itoa(hour,hourS,10);itoa(year,yearS,10);itoa(month,monthS,10);itoa(day,dayS,10);
    13b8:	80 91 dc 01 	lds	r24, 0x01DC	; 0x8001dc <__data_end>
    } else if (__radix < 2 || __radix > 36) {
	*__s = 0;
	return __s;
    } else {
	extern char *__itoa_ncheck (int, char *, unsigned char);
	return __itoa_ncheck (__val, __s, __radix);
    13bc:	4a e0       	ldi	r20, 0x0A	; 10
    13be:	be 01       	movw	r22, r28
    13c0:	6f 5f       	subi	r22, 0xFF	; 255
    13c2:	7f 4f       	sbci	r23, 0xFF	; 255
    13c4:	90 e0       	ldi	r25, 0x00	; 0
    13c6:	0e 94 68 14 	call	0x28d0	; 0x28d0 <__itoa_ncheck>
    13ca:	80 91 dd 01 	lds	r24, 0x01DD	; 0x8001dd <minute>
    13ce:	4a e0       	ldi	r20, 0x0A	; 10
    13d0:	be 01       	movw	r22, r28
    13d2:	65 5f       	subi	r22, 0xF5	; 245
    13d4:	7f 4f       	sbci	r23, 0xFF	; 255
    13d6:	90 e0       	ldi	r25, 0x00	; 0
    13d8:	0e 94 68 14 	call	0x28d0	; 0x28d0 <__itoa_ncheck>
    13dc:	80 91 de 01 	lds	r24, 0x01DE	; 0x8001de <hour>
    13e0:	4a e0       	ldi	r20, 0x0A	; 10
    13e2:	be 01       	movw	r22, r28
    13e4:	6b 5e       	subi	r22, 0xEB	; 235
    13e6:	7f 4f       	sbci	r23, 0xFF	; 255
    13e8:	90 e0       	ldi	r25, 0x00	; 0
    13ea:	0e 94 68 14 	call	0x28d0	; 0x28d0 <__itoa_ncheck>
    13ee:	80 91 e2 01 	lds	r24, 0x01E2	; 0x8001e2 <year>
    13f2:	4a e0       	ldi	r20, 0x0A	; 10
    13f4:	be 01       	movw	r22, r28
    13f6:	61 5e       	subi	r22, 0xE1	; 225
    13f8:	7f 4f       	sbci	r23, 0xFF	; 255
    13fa:	90 e0       	ldi	r25, 0x00	; 0
    13fc:	0e 94 68 14 	call	0x28d0	; 0x28d0 <__itoa_ncheck>
    1400:	80 91 e1 01 	lds	r24, 0x01E1	; 0x8001e1 <month>
    1404:	4a e0       	ldi	r20, 0x0A	; 10
    1406:	be 01       	movw	r22, r28
    1408:	67 5d       	subi	r22, 0xD7	; 215
    140a:	7f 4f       	sbci	r23, 0xFF	; 255
    140c:	90 e0       	ldi	r25, 0x00	; 0
    140e:	0e 94 68 14 	call	0x28d0	; 0x28d0 <__itoa_ncheck>
    1412:	80 91 e0 01 	lds	r24, 0x01E0	; 0x8001e0 <day>
    1416:	4a e0       	ldi	r20, 0x0A	; 10
    1418:	be 01       	movw	r22, r28
    141a:	6d 5c       	subi	r22, 0xCD	; 205
    141c:	7f 4f       	sbci	r23, 0xFF	; 255
    141e:	90 e0       	ldi	r25, 0x00	; 0
    1420:	0e 94 68 14 	call	0x28d0	; 0x28d0 <__itoa_ncheck>
	LCD_Home(0);LCD_String("   20");
    1424:	80 e0       	ldi	r24, 0x00	; 0
    1426:	90 e0       	ldi	r25, 0x00	; 0
    1428:	0e 94 4f 0d 	call	0x1a9e	; 0x1a9e <_Z8LCD_Homei>
    142c:	82 e9       	ldi	r24, 0x92	; 146
    142e:	91 e0       	ldi	r25, 0x01	; 1
    1430:	0e 94 2c 0d 	call	0x1a58	; 0x1a58 <_Z10LCD_StringPc>
	displayZero(year);LCD_String(yearS);LCD_String("-");
    1434:	80 91 e2 01 	lds	r24, 0x01E2	; 0x8001e2 <year>
    1438:	0e 94 ad 09 	call	0x135a	; 0x135a <_Z11displayZeroh>
    143c:	ce 01       	movw	r24, r28
    143e:	4f 96       	adiw	r24, 0x1f	; 31
    1440:	0e 94 2c 0d 	call	0x1a58	; 0x1a58 <_Z10LCD_StringPc>
    1444:	88 e9       	ldi	r24, 0x98	; 152
    1446:	91 e0       	ldi	r25, 0x01	; 1
    1448:	0e 94 2c 0d 	call	0x1a58	; 0x1a58 <_Z10LCD_StringPc>
	displayZero(month);LCD_String(monthS);LCD_String("-");
    144c:	80 91 e1 01 	lds	r24, 0x01E1	; 0x8001e1 <month>
    1450:	0e 94 ad 09 	call	0x135a	; 0x135a <_Z11displayZeroh>
    1454:	ce 01       	movw	r24, r28
    1456:	89 96       	adiw	r24, 0x29	; 41
    1458:	0e 94 2c 0d 	call	0x1a58	; 0x1a58 <_Z10LCD_StringPc>
    145c:	88 e9       	ldi	r24, 0x98	; 152
    145e:	91 e0       	ldi	r25, 0x01	; 1
    1460:	0e 94 2c 0d 	call	0x1a58	; 0x1a58 <_Z10LCD_StringPc>
	displayZero(day);LCD_String(dayS);
    1464:	80 91 e0 01 	lds	r24, 0x01E0	; 0x8001e0 <day>
    1468:	0e 94 ad 09 	call	0x135a	; 0x135a <_Z11displayZeroh>
    146c:	ce 01       	movw	r24, r28
    146e:	c3 96       	adiw	r24, 0x33	; 51
    1470:	0e 94 2c 0d 	call	0x1a58	; 0x1a58 <_Z10LCD_StringPc>
	LCD_Home(1);LCD_String("    ");
    1474:	81 e0       	ldi	r24, 0x01	; 1
    1476:	90 e0       	ldi	r25, 0x00	; 0
    1478:	0e 94 4f 0d 	call	0x1a9e	; 0x1a9e <_Z8LCD_Homei>
    147c:	8a e9       	ldi	r24, 0x9A	; 154
    147e:	91 e0       	ldi	r25, 0x01	; 1
    1480:	0e 94 2c 0d 	call	0x1a58	; 0x1a58 <_Z10LCD_StringPc>
	displayZero(hour);
    1484:	80 91 de 01 	lds	r24, 0x01DE	; 0x8001de <hour>
    1488:	0e 94 ad 09 	call	0x135a	; 0x135a <_Z11displayZeroh>
	LCD_String(hourS);
    148c:	ce 01       	movw	r24, r28
    148e:	45 96       	adiw	r24, 0x15	; 21
    1490:	0e 94 2c 0d 	call	0x1a58	; 0x1a58 <_Z10LCD_StringPc>
	LCD_String(":");
    1494:	8f e9       	ldi	r24, 0x9F	; 159
    1496:	91 e0       	ldi	r25, 0x01	; 1
    1498:	0e 94 2c 0d 	call	0x1a58	; 0x1a58 <_Z10LCD_StringPc>
	displayZero(minute);
    149c:	80 91 dd 01 	lds	r24, 0x01DD	; 0x8001dd <minute>
    14a0:	0e 94 ad 09 	call	0x135a	; 0x135a <_Z11displayZeroh>
	LCD_String(minuteS);
    14a4:	ce 01       	movw	r24, r28
    14a6:	0b 96       	adiw	r24, 0x0b	; 11
    14a8:	0e 94 2c 0d 	call	0x1a58	; 0x1a58 <_Z10LCD_StringPc>
	LCD_String(":");
    14ac:	8f e9       	ldi	r24, 0x9F	; 159
    14ae:	91 e0       	ldi	r25, 0x01	; 1
    14b0:	0e 94 2c 0d 	call	0x1a58	; 0x1a58 <_Z10LCD_StringPc>
	displayZero(second);
    14b4:	80 91 dc 01 	lds	r24, 0x01DC	; 0x8001dc <__data_end>
    14b8:	0e 94 ad 09 	call	0x135a	; 0x135a <_Z11displayZeroh>
	LCD_String(secondS);
    14bc:	ce 01       	movw	r24, r28
    14be:	01 96       	adiw	r24, 0x01	; 1
    14c0:	0e 94 2c 0d 	call	0x1a58	; 0x1a58 <_Z10LCD_StringPc>
	//_delay_ms(1);

    14c4:	ec 96       	adiw	r28, 0x3c	; 60
    14c6:	0f b6       	in	r0, 0x3f	; 63
    14c8:	f8 94       	cli
    14ca:	de bf       	out	0x3e, r29	; 62
    14cc:	0f be       	out	0x3f, r0	; 63
    14ce:	cd bf       	out	0x3d, r28	; 61
    14d0:	df 91       	pop	r29
    14d2:	cf 91       	pop	r28
    14d4:	1f 91       	pop	r17
    14d6:	0f 91       	pop	r16
    14d8:	ff 90       	pop	r15
    14da:	ef 90       	pop	r14
    14dc:	df 90       	pop	r13
    14de:	cf 90       	pop	r12
    14e0:	08 95       	ret

000014e2 <_Z11init_buzzerv>:
 
 volatile int sp = 1;    // This is a reference to stop the alarm with a button press
 
 void init_buzzer(){
	 // pins ports declaration
	 buzzer_DDR |= _BV(buzzer_PIN) ;			// make buzzer pin output
    14e2:	84 b1       	in	r24, 0x04	; 4
    14e4:	84 60       	ori	r24, 0x04	; 4
    14e6:	84 b9       	out	0x04, r24	; 4
	 	
	 EICRA |= _BV(ISC01) | _BV(ISC00);		  // set rising edge method
    14e8:	e9 e6       	ldi	r30, 0x69	; 105
    14ea:	f0 e0       	ldi	r31, 0x00	; 0
    14ec:	80 81       	ld	r24, Z
    14ee:	83 60       	ori	r24, 0x03	; 3
    14f0:	80 83       	st	Z, r24
	 EIMSK |= _BV(INT0);					 // enable pin PD1 External interrupt
    14f2:	8d b3       	in	r24, 0x1d	; 29
    14f4:	81 60       	ori	r24, 0x01	; 1
    14f6:	8d bb       	out	0x1d, r24	; 29
	 	
	 sei();								   //  this Enables the Global Interrupt Enable (I-bit) in the Status Register (SREG)
    14f8:	78 94       	sei
    14fa:	08 95       	ret

000014fc <_Z9Play_Noteff>:
	 
 }
 
 void Play_Note(float freq,float dur){
    14fc:	4f 92       	push	r4
    14fe:	5f 92       	push	r5
    1500:	6f 92       	push	r6
    1502:	7f 92       	push	r7
    1504:	8f 92       	push	r8
    1506:	9f 92       	push	r9
    1508:	af 92       	push	r10
    150a:	bf 92       	push	r11
    150c:	cf 92       	push	r12
    150e:	df 92       	push	r13
    1510:	ef 92       	push	r14
    1512:	ff 92       	push	r15
    1514:	cf 93       	push	r28
    1516:	df 93       	push	r29
    1518:	00 d0       	rcall	.+0      	; 0x151a <_Z9Play_Noteff+0x1e>
    151a:	00 d0       	rcall	.+0      	; 0x151c <_Z9Play_Noteff+0x20>
    151c:	cd b7       	in	r28, 0x3d	; 61
    151e:	de b7       	in	r29, 0x3e	; 62
    1520:	6b 01       	movw	r12, r22
    1522:	7c 01       	movw	r14, r24
    1524:	49 01       	movw	r8, r18
    1526:	5a 01       	movw	r10, r20
	 // variables
	 long int i,cycles;
	 float half_period,period;
	 
	 if (freq != 0){
    1528:	20 e0       	ldi	r18, 0x00	; 0
    152a:	30 e0       	ldi	r19, 0x00	; 0
    152c:	a9 01       	movw	r20, r18
    152e:	0e 94 6f 12 	call	0x24de	; 0x24de <__cmpsf2>
    1532:	88 23       	and	r24, r24
    1534:	09 f4       	brne	.+2      	; 0x1538 <_Z9Play_Noteff+0x3c>
    1536:	ad c0       	rjmp	.+346    	; 0x1692 <_Z9Play_Noteff+0x196>
		 period=(1/freq)*1000;
    1538:	a7 01       	movw	r20, r14
    153a:	96 01       	movw	r18, r12
    153c:	60 e0       	ldi	r22, 0x00	; 0
    153e:	70 e0       	ldi	r23, 0x00	; 0
    1540:	80 e8       	ldi	r24, 0x80	; 128
    1542:	9f e3       	ldi	r25, 0x3F	; 63
    1544:	0e 94 74 12 	call	0x24e8	; 0x24e8 <__divsf3>
    1548:	20 e0       	ldi	r18, 0x00	; 0
    154a:	30 e0       	ldi	r19, 0x00	; 0
    154c:	4a e7       	ldi	r20, 0x7A	; 122
    154e:	54 e4       	ldi	r21, 0x44	; 68
    1550:	0e 94 d3 13 	call	0x27a6	; 0x27a6 <__mulsf3>
    1554:	6b 01       	movw	r12, r22
    1556:	7c 01       	movw	r14, r24
		 cycles=dur/period;
    1558:	9b 01       	movw	r18, r22
    155a:	ac 01       	movw	r20, r24
    155c:	c5 01       	movw	r24, r10
    155e:	b4 01       	movw	r22, r8
    1560:	0e 94 74 12 	call	0x24e8	; 0x24e8 <__divsf3>
    1564:	0e 94 e6 12 	call	0x25cc	; 0x25cc <__fixsfsi>
    1568:	2b 01       	movw	r4, r22
    156a:	3c 01       	movw	r6, r24
		 half_period = period/2;
    156c:	20 e0       	ldi	r18, 0x00	; 0
    156e:	30 e0       	ldi	r19, 0x00	; 0
    1570:	40 e0       	ldi	r20, 0x00	; 0
    1572:	5f e3       	ldi	r21, 0x3F	; 63
    1574:	c7 01       	movw	r24, r14
    1576:	b6 01       	movw	r22, r12
    1578:	0e 94 d3 13 	call	0x27a6	; 0x27a6 <__mulsf3>
    157c:	69 83       	std	Y+1, r22	; 0x01
    157e:	7a 83       	std	Y+2, r23	; 0x02
    1580:	8b 83       	std	Y+3, r24	; 0x03
    1582:	9c 83       	std	Y+4, r25	; 0x04

		 for (i=0;i<cycles;i++)
    1584:	81 2c       	mov	r8, r1
    1586:	91 2c       	mov	r9, r1
    1588:	54 01       	movw	r10, r8
    158a:	84 14       	cp	r8, r4
    158c:	95 04       	cpc	r9, r5
    158e:	a6 04       	cpc	r10, r6
    1590:	b7 04       	cpc	r11, r7
    1592:	0c f0       	brlt	.+2      	; 0x1596 <_Z9Play_Noteff+0x9a>
    1594:	b8 c0       	rjmp	.+368    	; 0x1706 <_Z9Play_Noteff+0x20a>

	__builtin_avr_delay_cycles(__ticks_dc);

#else
	uint16_t __ticks;
	__tmp = ((F_CPU) / 4e3) * __ms;
    1596:	20 e0       	ldi	r18, 0x00	; 0
    1598:	30 e0       	ldi	r19, 0x00	; 0
    159a:	4a e7       	ldi	r20, 0x7A	; 122
    159c:	53 e4       	ldi	r21, 0x43	; 67
    159e:	69 81       	ldd	r22, Y+1	; 0x01
    15a0:	7a 81       	ldd	r23, Y+2	; 0x02
    15a2:	8b 81       	ldd	r24, Y+3	; 0x03
    15a4:	9c 81       	ldd	r25, Y+4	; 0x04
    15a6:	0e 94 d3 13 	call	0x27a6	; 0x27a6 <__mulsf3>
    15aa:	6b 01       	movw	r12, r22
    15ac:	7c 01       	movw	r14, r24
	if (__tmp < 1.0)
    15ae:	20 e0       	ldi	r18, 0x00	; 0
    15b0:	30 e0       	ldi	r19, 0x00	; 0
    15b2:	40 e8       	ldi	r20, 0x80	; 128
    15b4:	5f e3       	ldi	r21, 0x3F	; 63
    15b6:	0e 94 6f 12 	call	0x24de	; 0x24de <__cmpsf2>
    15ba:	88 23       	and	r24, r24
    15bc:	2c f1       	brlt	.+74     	; 0x1608 <_Z9Play_Noteff+0x10c>
		__ticks = 1;
	else if (__tmp > 65535)
    15be:	20 e0       	ldi	r18, 0x00	; 0
    15c0:	3f ef       	ldi	r19, 0xFF	; 255
    15c2:	4f e7       	ldi	r20, 0x7F	; 127
    15c4:	57 e4       	ldi	r21, 0x47	; 71
    15c6:	c7 01       	movw	r24, r14
    15c8:	b6 01       	movw	r22, r12
    15ca:	0e 94 ce 13 	call	0x279c	; 0x279c <__gesf2>
    15ce:	18 16       	cp	r1, r24
    15d0:	b4 f4       	brge	.+44     	; 0x15fe <_Z9Play_Noteff+0x102>
	{
		//	__ticks = requested delay in 1/10 ms
		__ticks = (uint16_t) (__ms * 10.0);
    15d2:	20 e0       	ldi	r18, 0x00	; 0
    15d4:	30 e0       	ldi	r19, 0x00	; 0
    15d6:	40 e2       	ldi	r20, 0x20	; 32
    15d8:	51 e4       	ldi	r21, 0x41	; 65
    15da:	69 81       	ldd	r22, Y+1	; 0x01
    15dc:	7a 81       	ldd	r23, Y+2	; 0x02
    15de:	8b 81       	ldd	r24, Y+3	; 0x03
    15e0:	9c 81       	ldd	r25, Y+4	; 0x04
    15e2:	0e 94 d3 13 	call	0x27a6	; 0x27a6 <__mulsf3>
    15e6:	0e 94 ed 12 	call	0x25da	; 0x25da <__fixunssfsi>
		while(__ticks)
    15ea:	61 15       	cp	r22, r1
    15ec:	71 05       	cpc	r23, r1
    15ee:	89 f0       	breq	.+34     	; 0x1612 <_Z9Play_Noteff+0x116>
	__asm__ volatile (
		"1: sbiw %0,1" "\n\t"
		"brne 1b"
		: "=w" (__count)
		: "0" (__count)
	);
    15f0:	89 e1       	ldi	r24, 0x19	; 25
    15f2:	90 e0       	ldi	r25, 0x00	; 0
    15f4:	01 97       	sbiw	r24, 0x01	; 1
    15f6:	f1 f7       	brne	.-4      	; 0x15f4 <_Z9Play_Noteff+0xf8>
		{
			// wait 1/10 ms
			_delay_loop_2(((F_CPU) / 4e3) / 10);
			__ticks --;
    15f8:	61 50       	subi	r22, 0x01	; 1
    15fa:	71 09       	sbc	r23, r1
    15fc:	f6 cf       	rjmp	.-20     	; 0x15ea <_Z9Play_Noteff+0xee>
		}
		return;
	}
	else
		__ticks = (uint16_t)__tmp;
    15fe:	c7 01       	movw	r24, r14
    1600:	b6 01       	movw	r22, r12
    1602:	0e 94 ed 12 	call	0x25da	; 0x25da <__fixunssfsi>
    1606:	02 c0       	rjmp	.+4      	; 0x160c <_Z9Play_Noteff+0x110>

#else
	uint16_t __ticks;
	__tmp = ((F_CPU) / 4e3) * __ms;
	if (__tmp < 1.0)
		__ticks = 1;
    1608:	61 e0       	ldi	r22, 0x01	; 1
    160a:	70 e0       	ldi	r23, 0x00	; 0
    160c:	cb 01       	movw	r24, r22
    160e:	01 97       	sbiw	r24, 0x01	; 1
    1610:	f1 f7       	brne	.-4      	; 0x160e <_Z9Play_Noteff+0x112>
		 {
			 //50% duty cycle
			 _delay_ms(half_period);
			 buzzer_PORT |= _BV(buzzer_PIN);
    1612:	85 b1       	in	r24, 0x05	; 5
    1614:	84 60       	ori	r24, 0x04	; 4
    1616:	85 b9       	out	0x05, r24	; 5
	__builtin_avr_delay_cycles(__ticks_dc);

#else
	uint16_t __ticks;
	__tmp = ((F_CPU) / 4e3) * __ms;
	if (__tmp < 1.0)
    1618:	20 e0       	ldi	r18, 0x00	; 0
    161a:	30 e0       	ldi	r19, 0x00	; 0
    161c:	40 e8       	ldi	r20, 0x80	; 128
    161e:	5f e3       	ldi	r21, 0x3F	; 63
    1620:	c7 01       	movw	r24, r14
    1622:	b6 01       	movw	r22, r12
    1624:	0e 94 6f 12 	call	0x24de	; 0x24de <__cmpsf2>
    1628:	88 23       	and	r24, r24
    162a:	2c f1       	brlt	.+74     	; 0x1676 <_Z9Play_Noteff+0x17a>
		__ticks = 1;
	else if (__tmp > 65535)
    162c:	20 e0       	ldi	r18, 0x00	; 0
    162e:	3f ef       	ldi	r19, 0xFF	; 255
    1630:	4f e7       	ldi	r20, 0x7F	; 127
    1632:	57 e4       	ldi	r21, 0x47	; 71
    1634:	c7 01       	movw	r24, r14
    1636:	b6 01       	movw	r22, r12
    1638:	0e 94 ce 13 	call	0x279c	; 0x279c <__gesf2>
    163c:	18 16       	cp	r1, r24
    163e:	b4 f4       	brge	.+44     	; 0x166c <_Z9Play_Noteff+0x170>
	{
		//	__ticks = requested delay in 1/10 ms
		__ticks = (uint16_t) (__ms * 10.0);
    1640:	20 e0       	ldi	r18, 0x00	; 0
    1642:	30 e0       	ldi	r19, 0x00	; 0
    1644:	40 e2       	ldi	r20, 0x20	; 32
    1646:	51 e4       	ldi	r21, 0x41	; 65
    1648:	69 81       	ldd	r22, Y+1	; 0x01
    164a:	7a 81       	ldd	r23, Y+2	; 0x02
    164c:	8b 81       	ldd	r24, Y+3	; 0x03
    164e:	9c 81       	ldd	r25, Y+4	; 0x04
    1650:	0e 94 d3 13 	call	0x27a6	; 0x27a6 <__mulsf3>
    1654:	0e 94 ed 12 	call	0x25da	; 0x25da <__fixunssfsi>
		while(__ticks)
    1658:	61 15       	cp	r22, r1
    165a:	71 05       	cpc	r23, r1
    165c:	89 f0       	breq	.+34     	; 0x1680 <_Z9Play_Noteff+0x184>
    165e:	89 e1       	ldi	r24, 0x19	; 25
    1660:	90 e0       	ldi	r25, 0x00	; 0
    1662:	01 97       	sbiw	r24, 0x01	; 1
    1664:	f1 f7       	brne	.-4      	; 0x1662 <_Z9Play_Noteff+0x166>
		{
			// wait 1/10 ms
			_delay_loop_2(((F_CPU) / 4e3) / 10);
			__ticks --;
    1666:	61 50       	subi	r22, 0x01	; 1
    1668:	71 09       	sbc	r23, r1
    166a:	f6 cf       	rjmp	.-20     	; 0x1658 <_Z9Play_Noteff+0x15c>
		}
		return;
	}
	else
		__ticks = (uint16_t)__tmp;
    166c:	c7 01       	movw	r24, r14
    166e:	b6 01       	movw	r22, r12
    1670:	0e 94 ed 12 	call	0x25da	; 0x25da <__fixunssfsi>
    1674:	02 c0       	rjmp	.+4      	; 0x167a <_Z9Play_Noteff+0x17e>

#else
	uint16_t __ticks;
	__tmp = ((F_CPU) / 4e3) * __ms;
	if (__tmp < 1.0)
		__ticks = 1;
    1676:	61 e0       	ldi	r22, 0x01	; 1
    1678:	70 e0       	ldi	r23, 0x00	; 0
    167a:	cb 01       	movw	r24, r22
    167c:	01 97       	sbiw	r24, 0x01	; 1
    167e:	f1 f7       	brne	.-4      	; 0x167c <_Z9Play_Noteff+0x180>
			 _delay_ms(half_period);
			 buzzer_PORT &= ~ _BV(buzzer_PIN);
    1680:	85 b1       	in	r24, 0x05	; 5
    1682:	8b 7f       	andi	r24, 0xFB	; 251
    1684:	85 b9       	out	0x05, r24	; 5
	 if (freq != 0){
		 period=(1/freq)*1000;
		 cycles=dur/period;
		 half_period = period/2;

		 for (i=0;i<cycles;i++)
    1686:	8f ef       	ldi	r24, 0xFF	; 255
    1688:	88 1a       	sub	r8, r24
    168a:	98 0a       	sbc	r9, r24
    168c:	a8 0a       	sbc	r10, r24
    168e:	b8 0a       	sbc	r11, r24
    1690:	7c cf       	rjmp	.-264    	; 0x158a <_Z9Play_Noteff+0x8e>

	__builtin_avr_delay_cycles(__ticks_dc);

#else
	uint16_t __ticks;
	__tmp = ((F_CPU) / 4e3) * __ms;
    1692:	20 e0       	ldi	r18, 0x00	; 0
    1694:	30 e0       	ldi	r19, 0x00	; 0
    1696:	4a e7       	ldi	r20, 0x7A	; 122
    1698:	53 e4       	ldi	r21, 0x43	; 67
    169a:	c5 01       	movw	r24, r10
    169c:	b4 01       	movw	r22, r8
    169e:	0e 94 d3 13 	call	0x27a6	; 0x27a6 <__mulsf3>
    16a2:	6b 01       	movw	r12, r22
    16a4:	7c 01       	movw	r14, r24
	if (__tmp < 1.0)
    16a6:	20 e0       	ldi	r18, 0x00	; 0
    16a8:	30 e0       	ldi	r19, 0x00	; 0
    16aa:	40 e8       	ldi	r20, 0x80	; 128
    16ac:	5f e3       	ldi	r21, 0x3F	; 63
    16ae:	0e 94 6f 12 	call	0x24de	; 0x24de <__cmpsf2>
    16b2:	88 23       	and	r24, r24
    16b4:	1c f1       	brlt	.+70     	; 0x16fc <_Z9Play_Noteff+0x200>
		__ticks = 1;
	else if (__tmp > 65535)
    16b6:	20 e0       	ldi	r18, 0x00	; 0
    16b8:	3f ef       	ldi	r19, 0xFF	; 255
    16ba:	4f e7       	ldi	r20, 0x7F	; 127
    16bc:	57 e4       	ldi	r21, 0x47	; 71
    16be:	c7 01       	movw	r24, r14
    16c0:	b6 01       	movw	r22, r12
    16c2:	0e 94 ce 13 	call	0x279c	; 0x279c <__gesf2>
    16c6:	18 16       	cp	r1, r24
    16c8:	a4 f4       	brge	.+40     	; 0x16f2 <_Z9Play_Noteff+0x1f6>
	{
		//	__ticks = requested delay in 1/10 ms
		__ticks = (uint16_t) (__ms * 10.0);
    16ca:	20 e0       	ldi	r18, 0x00	; 0
    16cc:	30 e0       	ldi	r19, 0x00	; 0
    16ce:	40 e2       	ldi	r20, 0x20	; 32
    16d0:	51 e4       	ldi	r21, 0x41	; 65
    16d2:	c5 01       	movw	r24, r10
    16d4:	b4 01       	movw	r22, r8
    16d6:	0e 94 d3 13 	call	0x27a6	; 0x27a6 <__mulsf3>
    16da:	0e 94 ed 12 	call	0x25da	; 0x25da <__fixunssfsi>
		while(__ticks)
    16de:	61 15       	cp	r22, r1
    16e0:	71 05       	cpc	r23, r1
    16e2:	89 f0       	breq	.+34     	; 0x1706 <_Z9Play_Noteff+0x20a>
    16e4:	89 e1       	ldi	r24, 0x19	; 25
    16e6:	90 e0       	ldi	r25, 0x00	; 0
    16e8:	01 97       	sbiw	r24, 0x01	; 1
    16ea:	f1 f7       	brne	.-4      	; 0x16e8 <_Z9Play_Noteff+0x1ec>
		{
			// wait 1/10 ms
			_delay_loop_2(((F_CPU) / 4e3) / 10);
			__ticks --;
    16ec:	61 50       	subi	r22, 0x01	; 1
    16ee:	71 09       	sbc	r23, r1
    16f0:	f6 cf       	rjmp	.-20     	; 0x16de <_Z9Play_Noteff+0x1e2>
		}
		return;
	}
	else
		__ticks = (uint16_t)__tmp;
    16f2:	c7 01       	movw	r24, r14
    16f4:	b6 01       	movw	r22, r12
    16f6:	0e 94 ed 12 	call	0x25da	; 0x25da <__fixunssfsi>
    16fa:	02 c0       	rjmp	.+4      	; 0x1700 <_Z9Play_Noteff+0x204>

#else
	uint16_t __ticks;
	__tmp = ((F_CPU) / 4e3) * __ms;
	if (__tmp < 1.0)
		__ticks = 1;
    16fc:	61 e0       	ldi	r22, 0x01	; 1
    16fe:	70 e0       	ldi	r23, 0x00	; 0
    1700:	cb 01       	movw	r24, r22
    1702:	01 97       	sbiw	r24, 0x01	; 1
    1704:	f1 f7       	brne	.-4      	; 0x1702 <_Z9Play_Noteff+0x206>
	 }
	 else {
		 _delay_ms(dur);   // rest
	 }
	 return;
 }
    1706:	0f 90       	pop	r0
    1708:	0f 90       	pop	r0
    170a:	0f 90       	pop	r0
    170c:	0f 90       	pop	r0
    170e:	df 91       	pop	r29
    1710:	cf 91       	pop	r28
    1712:	ff 90       	pop	r15
    1714:	ef 90       	pop	r14
    1716:	df 90       	pop	r13
    1718:	cf 90       	pop	r12
    171a:	bf 90       	pop	r11
    171c:	af 90       	pop	r10
    171e:	9f 90       	pop	r9
    1720:	8f 90       	pop	r8
    1722:	7f 90       	pop	r7
    1724:	6f 90       	pop	r6
    1726:	5f 90       	pop	r5
    1728:	4f 90       	pop	r4
    172a:	08 95       	ret

0000172c <__vector_1>:
 
 /** External interrupt for INT0 (PD2) pin ISR function
 We will use this to stop currently playing melody **/

 ISR (INT0_vect)          //External interrupt Stop button ISR
 {
    172c:	1f 92       	push	r1
    172e:	0f 92       	push	r0
    1730:	0f b6       	in	r0, 0x3f	; 63
    1732:	0f 92       	push	r0
    1734:	11 24       	eor	r1, r1
    1736:	8f 93       	push	r24
    1738:	9f 93       	push	r25
	 sp=0;
    173a:	10 92 19 01 	sts	0x0119, r1	; 0x800119 <sp+0x1>
    173e:	10 92 18 01 	sts	0x0118, r1	; 0x800118 <sp>
    1742:	88 ea       	ldi	r24, 0xA8	; 168
    1744:	91 e6       	ldi	r25, 0x61	; 97
    1746:	01 97       	sbiw	r24, 0x01	; 1
    1748:	f1 f7       	brne	.-4      	; 0x1746 <__vector_1+0x1a>
	 _delay_ms(100);
 }
    174a:	9f 91       	pop	r25
    174c:	8f 91       	pop	r24
    174e:	0f 90       	pop	r0
    1750:	0f be       	out	0x3f, r0	; 63
    1752:	0f 90       	pop	r0
    1754:	1f 90       	pop	r1
    1756:	18 95       	reti

00001758 <_Z11tempochoosei>:

int tempochoose(int number){
	if (number==0){return tempos[0];}
    1758:	00 97       	sbiw	r24, 0x00	; 0
    175a:	41 f0       	breq	.+16     	; 0x176c <_Z11tempochoosei+0x14>
	else if (number==1){return tempos[1];}
    175c:	81 30       	cpi	r24, 0x01	; 1
    175e:	91 05       	cpc	r25, r1
    1760:	41 f0       	breq	.+16     	; 0x1772 <_Z11tempochoosei+0x1a>
	else if (number==2){return tempos[2];}
    1762:	02 97       	sbiw	r24, 0x02	; 2
    1764:	49 f4       	brne	.+18     	; 0x1778 <_Z11tempochoosei+0x20>
    1766:	85 e5       	ldi	r24, 0x55	; 85
    1768:	90 e0       	ldi	r25, 0x00	; 0
    176a:	08 95       	ret
	 sp=0;
	 _delay_ms(100);
 }

int tempochoose(int number){
	if (number==0){return tempos[0];}
    176c:	81 ee       	ldi	r24, 0xE1	; 225
    176e:	90 e0       	ldi	r25, 0x00	; 0
    1770:	08 95       	ret
	else if (number==1){return tempos[1];}
    1772:	88 e7       	ldi	r24, 0x78	; 120
    1774:	90 e0       	ldi	r25, 0x00	; 0
    1776:	08 95       	ret
	else if (number==2){return tempos[2];}
	else{return tempos[3];}
    1778:	88 e7       	ldi	r24, 0x78	; 120
    177a:	90 e0       	ldi	r25, 0x00	; 0
    177c:	08 95       	ret

0000177e <_Z4playi>:
		 _delay_ms(dur);   // rest
	 }
	 return;
 }
 
 void play(int number){
    177e:	2f 92       	push	r2
    1780:	3f 92       	push	r3
    1782:	4f 92       	push	r4
    1784:	5f 92       	push	r5
    1786:	6f 92       	push	r6
    1788:	7f 92       	push	r7
    178a:	8f 92       	push	r8
    178c:	9f 92       	push	r9
    178e:	af 92       	push	r10
    1790:	bf 92       	push	r11
    1792:	cf 92       	push	r12
    1794:	df 92       	push	r13
    1796:	ef 92       	push	r14
    1798:	ff 92       	push	r15
    179a:	0f 93       	push	r16
    179c:	1f 93       	push	r17
    179e:	cf 93       	push	r28
    17a0:	df 93       	push	r29
    17a2:	00 d0       	rcall	.+0      	; 0x17a4 <_Z4playi+0x26>
    17a4:	00 d0       	rcall	.+0      	; 0x17a6 <_Z4playi+0x28>
    17a6:	cd b7       	in	r28, 0x3d	; 61
    17a8:	de b7       	in	r29, 0x3e	; 62
    17aa:	1c 01       	movw	r2, r24
	 int tempo=tempochoose(number); // choose the right tempo from the list using the function
    17ac:	0e 94 ac 0b 	call	0x1758	; 0x1758 <_Z11tempochoosei>
	 int notes = sizeof(melody0[number])/sizeof(melody0[number][0])/2;
	 int wholenote = (60000 * 2.5) / tempo;
    17b0:	bc 01       	movw	r22, r24
    17b2:	99 0f       	add	r25, r25
    17b4:	88 0b       	sbc	r24, r24
    17b6:	99 0b       	sbc	r25, r25
    17b8:	0e 94 1e 13 	call	0x263c	; 0x263c <__floatsisf>
    17bc:	9b 01       	movw	r18, r22
    17be:	ac 01       	movw	r20, r24
    17c0:	60 e0       	ldi	r22, 0x00	; 0
    17c2:	7c e7       	ldi	r23, 0x7C	; 124
    17c4:	82 e1       	ldi	r24, 0x12	; 18
    17c6:	98 e4       	ldi	r25, 0x48	; 72
    17c8:	0e 94 74 12 	call	0x24e8	; 0x24e8 <__divsf3>
    17cc:	0e 94 e6 12 	call	0x25cc	; 0x25cc <__fixsfsi>
    17d0:	7a 83       	std	Y+2, r23	; 0x02
    17d2:	69 83       	std	Y+1, r22	; 0x01
	 int divider = 0;
	 int noteDuration = 0;
	 
	 for (int thisNote = 0; thisNote < notes *2 ; thisNote = thisNote + 2) {
    17d4:	1c 82       	std	Y+4, r1	; 0x04
    17d6:	1b 82       	std	Y+3, r1	; 0x03
 void play(int number){
	 int tempo=tempochoose(number); // choose the right tempo from the list using the function
	 int notes = sizeof(melody0[number])/sizeof(melody0[number][0])/2;
	 int wholenote = (60000 * 2.5) / tempo;
	 int divider = 0;
	 int noteDuration = 0;
    17d8:	e1 2c       	mov	r14, r1
    17da:	f1 2c       	mov	r15, r1
	 
	 for (int thisNote = 0; thisNote < notes *2 ; thisNote = thisNote + 2) {
    17dc:	8b 81       	ldd	r24, Y+3	; 0x03
    17de:	9c 81       	ldd	r25, Y+4	; 0x04
    17e0:	80 39       	cpi	r24, 0x90	; 144
    17e2:	91 40       	sbci	r25, 0x01	; 1
    17e4:	0c f0       	brlt	.+2      	; 0x17e8 <_Z4playi+0x6a>
    17e6:	ad c0       	rjmp	.+346    	; 0x1942 <_Z4playi+0x1c4>
		 if (sp==1){
    17e8:	80 91 18 01 	lds	r24, 0x0118	; 0x800118 <sp>
    17ec:	90 91 19 01 	lds	r25, 0x0119	; 0x800119 <sp+0x1>
    17f0:	01 97       	sbiw	r24, 0x01	; 1
    17f2:	09 f0       	breq	.+2      	; 0x17f6 <_Z4playi+0x78>
    17f4:	a2 c0       	rjmp	.+324    	; 0x193a <_Z4playi+0x1bc>
			 divider = pgm_read_word_near(melody0[number]+thisNote + 1);
    17f6:	80 e2       	ldi	r24, 0x20	; 32
    17f8:	93 e0       	ldi	r25, 0x03	; 3
    17fa:	28 9e       	mul	r2, r24
    17fc:	80 01       	movw	r16, r0
    17fe:	29 9e       	mul	r2, r25
    1800:	10 0d       	add	r17, r0
    1802:	38 9e       	mul	r3, r24
    1804:	10 0d       	add	r17, r0
    1806:	11 24       	eor	r1, r1
    1808:	08 59       	subi	r16, 0x98	; 152
    180a:	1f 4f       	sbci	r17, 0xFF	; 255
    180c:	cb 80       	ldd	r12, Y+3	; 0x03
    180e:	dc 80       	ldd	r13, Y+4	; 0x04
    1810:	f6 01       	movw	r30, r12
    1812:	31 96       	adiw	r30, 0x01	; 1
    1814:	ee 0f       	add	r30, r30
    1816:	ff 1f       	adc	r31, r31
    1818:	e0 0f       	add	r30, r16
    181a:	f1 1f       	adc	r31, r17
    181c:	65 91       	lpm	r22, Z+
    181e:	74 91       	lpm	r23, Z
			 
			 if (divider > 0) { //positive divider ( positive duration)
    1820:	16 16       	cp	r1, r22
    1822:	17 06       	cpc	r1, r23
    1824:	34 f4       	brge	.+12     	; 0x1832 <_Z4playi+0xb4>
				 // it is a regular note
			 noteDuration = (wholenote) / divider;}
    1826:	89 81       	ldd	r24, Y+1	; 0x01
    1828:	9a 81       	ldd	r25, Y+2	; 0x02
    182a:	0e 94 40 14 	call	0x2880	; 0x2880 <__divmodhi4>
    182e:	7b 01       	movw	r14, r22
    1830:	1c c0       	rjmp	.+56     	; 0x186a <_Z4playi+0xec>
			 
			 else if (divider<0){
    1832:	77 23       	and	r23, r23
    1834:	bc f4       	brge	.+46     	; 0x1864 <_Z4playi+0xe6>
				 noteDuration=(wholenote)/(divider);// negative durations need to be increased and made positive
    1836:	89 81       	ldd	r24, Y+1	; 0x01
    1838:	9a 81       	ldd	r25, Y+2	; 0x02
    183a:	0e 94 40 14 	call	0x2880	; 0x2880 <__divmodhi4>
				 noteDuration=noteDuration*1.5;
    183e:	07 2e       	mov	r0, r23
    1840:	00 0c       	add	r0, r0
    1842:	88 0b       	sbc	r24, r24
    1844:	99 0b       	sbc	r25, r25
    1846:	0e 94 1e 13 	call	0x263c	; 0x263c <__floatsisf>
    184a:	20 e0       	ldi	r18, 0x00	; 0
    184c:	30 e0       	ldi	r19, 0x00	; 0
    184e:	40 ec       	ldi	r20, 0xC0	; 192
    1850:	5f e3       	ldi	r21, 0x3F	; 63
    1852:	0e 94 d3 13 	call	0x27a6	; 0x27a6 <__mulsf3>
    1856:	0e 94 e6 12 	call	0x25cc	; 0x25cc <__fixsfsi>
				 noteDuration=-noteDuration;
    185a:	ee 24       	eor	r14, r14
    185c:	ff 24       	eor	r15, r15
    185e:	e6 1a       	sub	r14, r22
    1860:	f7 0a       	sbc	r15, r23
    1862:	03 c0       	rjmp	.+6      	; 0x186a <_Z4playi+0xec>
			 }
			 else if(divider==0){return;} // this will be used to stop playing
    1864:	67 2b       	or	r22, r23
    1866:	09 f4       	brne	.+2      	; 0x186a <_Z4playi+0xec>
    1868:	6c c0       	rjmp	.+216    	; 0x1942 <_Z4playi+0x1c4>
			 Play_Note((pgm_read_word_near(melody0[number]+thisNote)), noteDuration*0.9 ); // play the selected pitch
    186a:	b7 01       	movw	r22, r14
    186c:	0f 2c       	mov	r0, r15
    186e:	00 0c       	add	r0, r0
    1870:	88 0b       	sbc	r24, r24
    1872:	99 0b       	sbc	r25, r25
    1874:	0e 94 1e 13 	call	0x263c	; 0x263c <__floatsisf>
    1878:	2b 01       	movw	r4, r22
    187a:	3c 01       	movw	r6, r24
    187c:	26 e6       	ldi	r18, 0x66	; 102
    187e:	36 e6       	ldi	r19, 0x66	; 102
    1880:	46 e6       	ldi	r20, 0x66	; 102
    1882:	5f e3       	ldi	r21, 0x3F	; 63
    1884:	0e 94 d3 13 	call	0x27a6	; 0x27a6 <__mulsf3>
    1888:	4b 01       	movw	r8, r22
    188a:	5c 01       	movw	r10, r24
    188c:	f6 01       	movw	r30, r12
    188e:	ee 0f       	add	r30, r30
    1890:	ff 1f       	adc	r31, r31
    1892:	e0 0f       	add	r30, r16
    1894:	f1 1f       	adc	r31, r17
    1896:	65 91       	lpm	r22, Z+
    1898:	74 91       	lpm	r23, Z
    189a:	80 e0       	ldi	r24, 0x00	; 0
    189c:	90 e0       	ldi	r25, 0x00	; 0
    189e:	0e 94 1c 13 	call	0x2638	; 0x2638 <__floatunsisf>
    18a2:	a5 01       	movw	r20, r10
    18a4:	94 01       	movw	r18, r8
    18a6:	0e 94 7e 0a 	call	0x14fc	; 0x14fc <_Z9Play_Noteff>
			 _delay_ms(noteDuration*0.5);
    18aa:	20 e0       	ldi	r18, 0x00	; 0
    18ac:	30 e0       	ldi	r19, 0x00	; 0
    18ae:	40 e0       	ldi	r20, 0x00	; 0
    18b0:	5f e3       	ldi	r21, 0x3F	; 63
    18b2:	c3 01       	movw	r24, r6
    18b4:	b2 01       	movw	r22, r4
    18b6:	0e 94 d3 13 	call	0x27a6	; 0x27a6 <__mulsf3>
    18ba:	2b 01       	movw	r4, r22
    18bc:	3c 01       	movw	r6, r24

	__builtin_avr_delay_cycles(__ticks_dc);

#else
	uint16_t __ticks;
	__tmp = ((F_CPU) / 4e3) * __ms;
    18be:	20 e0       	ldi	r18, 0x00	; 0
    18c0:	30 e0       	ldi	r19, 0x00	; 0
    18c2:	4a e7       	ldi	r20, 0x7A	; 122
    18c4:	53 e4       	ldi	r21, 0x43	; 67
    18c6:	0e 94 d3 13 	call	0x27a6	; 0x27a6 <__mulsf3>
    18ca:	4b 01       	movw	r8, r22
    18cc:	5c 01       	movw	r10, r24
	if (__tmp < 1.0)
    18ce:	20 e0       	ldi	r18, 0x00	; 0
    18d0:	30 e0       	ldi	r19, 0x00	; 0
    18d2:	40 e8       	ldi	r20, 0x80	; 128
    18d4:	5f e3       	ldi	r21, 0x3F	; 63
    18d6:	0e 94 6f 12 	call	0x24de	; 0x24de <__cmpsf2>
    18da:	88 23       	and	r24, r24
    18dc:	1c f1       	brlt	.+70     	; 0x1924 <_Z4playi+0x1a6>
		__ticks = 1;
	else if (__tmp > 65535)
    18de:	20 e0       	ldi	r18, 0x00	; 0
    18e0:	3f ef       	ldi	r19, 0xFF	; 255
    18e2:	4f e7       	ldi	r20, 0x7F	; 127
    18e4:	57 e4       	ldi	r21, 0x47	; 71
    18e6:	c5 01       	movw	r24, r10
    18e8:	b4 01       	movw	r22, r8
    18ea:	0e 94 ce 13 	call	0x279c	; 0x279c <__gesf2>
    18ee:	18 16       	cp	r1, r24
    18f0:	a4 f4       	brge	.+40     	; 0x191a <_Z4playi+0x19c>
	{
		//	__ticks = requested delay in 1/10 ms
		__ticks = (uint16_t) (__ms * 10.0);
    18f2:	20 e0       	ldi	r18, 0x00	; 0
    18f4:	30 e0       	ldi	r19, 0x00	; 0
    18f6:	40 e2       	ldi	r20, 0x20	; 32
    18f8:	51 e4       	ldi	r21, 0x41	; 65
    18fa:	c3 01       	movw	r24, r6
    18fc:	b2 01       	movw	r22, r4
    18fe:	0e 94 d3 13 	call	0x27a6	; 0x27a6 <__mulsf3>
    1902:	0e 94 ed 12 	call	0x25da	; 0x25da <__fixunssfsi>
		while(__ticks)
    1906:	61 15       	cp	r22, r1
    1908:	71 05       	cpc	r23, r1
    190a:	89 f0       	breq	.+34     	; 0x192e <_Z4playi+0x1b0>
    190c:	89 e1       	ldi	r24, 0x19	; 25
    190e:	90 e0       	ldi	r25, 0x00	; 0
    1910:	01 97       	sbiw	r24, 0x01	; 1
    1912:	f1 f7       	brne	.-4      	; 0x1910 <_Z4playi+0x192>
		{
			// wait 1/10 ms
			_delay_loop_2(((F_CPU) / 4e3) / 10);
			__ticks --;
    1914:	61 50       	subi	r22, 0x01	; 1
    1916:	71 09       	sbc	r23, r1
    1918:	f6 cf       	rjmp	.-20     	; 0x1906 <_Z4playi+0x188>
		}
		return;
	}
	else
		__ticks = (uint16_t)__tmp;
    191a:	c5 01       	movw	r24, r10
    191c:	b4 01       	movw	r22, r8
    191e:	0e 94 ed 12 	call	0x25da	; 0x25da <__fixunssfsi>
    1922:	02 c0       	rjmp	.+4      	; 0x1928 <_Z4playi+0x1aa>

#else
	uint16_t __ticks;
	__tmp = ((F_CPU) / 4e3) * __ms;
	if (__tmp < 1.0)
		__ticks = 1;
    1924:	61 e0       	ldi	r22, 0x01	; 1
    1926:	70 e0       	ldi	r23, 0x00	; 0
    1928:	cb 01       	movw	r24, r22
    192a:	01 97       	sbiw	r24, 0x01	; 1
    192c:	f1 f7       	brne	.-4      	; 0x192a <_Z4playi+0x1ac>
	 int notes = sizeof(melody0[number])/sizeof(melody0[number][0])/2;
	 int wholenote = (60000 * 2.5) / tempo;
	 int divider = 0;
	 int noteDuration = 0;
	 
	 for (int thisNote = 0; thisNote < notes *2 ; thisNote = thisNote + 2) {
    192e:	8b 81       	ldd	r24, Y+3	; 0x03
    1930:	9c 81       	ldd	r25, Y+4	; 0x04
    1932:	02 96       	adiw	r24, 0x02	; 2
    1934:	9c 83       	std	Y+4, r25	; 0x04
    1936:	8b 83       	std	Y+3, r24	; 0x03
    1938:	51 cf       	rjmp	.-350    	; 0x17dc <_Z4playi+0x5e>
			 else if(divider==0){return;} // this will be used to stop playing
			 Play_Note((pgm_read_word_near(melody0[number]+thisNote)), noteDuration*0.9 ); // play the selected pitch
			 _delay_ms(noteDuration*0.5);
		 }
		 else{
			 sp=0;
    193a:	10 92 19 01 	sts	0x0119, r1	; 0x800119 <sp+0x1>
    193e:	10 92 18 01 	sts	0x0118, r1	; 0x800118 <sp>
			 break;
		 }
	 }
 }
    1942:	0f 90       	pop	r0
    1944:	0f 90       	pop	r0
    1946:	0f 90       	pop	r0
    1948:	0f 90       	pop	r0
    194a:	df 91       	pop	r29
    194c:	cf 91       	pop	r28
    194e:	1f 91       	pop	r17
    1950:	0f 91       	pop	r16
    1952:	ff 90       	pop	r15
    1954:	ef 90       	pop	r14
    1956:	df 90       	pop	r13
    1958:	cf 90       	pop	r12
    195a:	bf 90       	pop	r11
    195c:	af 90       	pop	r10
    195e:	9f 90       	pop	r9
    1960:	8f 90       	pop	r8
    1962:	7f 90       	pop	r7
    1964:	6f 90       	pop	r6
    1966:	5f 90       	pop	r5
    1968:	4f 90       	pop	r4
    196a:	3f 90       	pop	r3
    196c:	2f 90       	pop	r2
    196e:	08 95       	ret

00001970 <_Z11LCD_Commandh>:
	if (row == 0 && pos<16)
	LCD_Command((pos & 0x0F)|0x80);	/* Command of first row and required position<16 */
	else if (row == 1 && pos<16)
	LCD_Command((pos & 0x0F)|0xC0);	/* Command of first row and required position<16 */
	LCD_String(str);		/* Call LCD string function */
}
    1970:	95 b1       	in	r25, 0x05	; 5
    1972:	9f 70       	andi	r25, 0x0F	; 15
    1974:	28 2f       	mov	r18, r24
    1976:	20 7f       	andi	r18, 0xF0	; 240
    1978:	92 2b       	or	r25, r18
    197a:	95 b9       	out	0x05, r25	; 5
    197c:	95 b1       	in	r25, 0x05	; 5
    197e:	9e 7f       	andi	r25, 0xFE	; 254
    1980:	95 b9       	out	0x05, r25	; 5
    1982:	95 b1       	in	r25, 0x05	; 5
    1984:	92 60       	ori	r25, 0x02	; 2
    1986:	95 b9       	out	0x05, r25	; 5
    1988:	00 00       	nop
    198a:	95 b1       	in	r25, 0x05	; 5
    198c:	9d 7f       	andi	r25, 0xFD	; 253
    198e:	95 b9       	out	0x05, r25	; 5
    1990:	32 e4       	ldi	r19, 0x42	; 66
    1992:	3a 95       	dec	r19
    1994:	f1 f7       	brne	.-4      	; 0x1992 <_Z11LCD_Commandh+0x22>
    1996:	00 c0       	rjmp	.+0      	; 0x1998 <_Z11LCD_Commandh+0x28>
    1998:	25 b1       	in	r18, 0x05	; 5
    199a:	30 e1       	ldi	r19, 0x10	; 16
    199c:	83 9f       	mul	r24, r19
    199e:	c0 01       	movw	r24, r0
    19a0:	11 24       	eor	r1, r1
    19a2:	92 2f       	mov	r25, r18
    19a4:	9f 70       	andi	r25, 0x0F	; 15
    19a6:	89 2b       	or	r24, r25
    19a8:	85 b9       	out	0x05, r24	; 5
    19aa:	85 b1       	in	r24, 0x05	; 5
    19ac:	82 60       	ori	r24, 0x02	; 2
    19ae:	85 b9       	out	0x05, r24	; 5
    19b0:	00 00       	nop
    19b2:	85 b1       	in	r24, 0x05	; 5
    19b4:	8d 7f       	andi	r24, 0xFD	; 253
    19b6:	85 b9       	out	0x05, r24	; 5
    19b8:	83 ef       	ldi	r24, 0xF3	; 243
    19ba:	91 e0       	ldi	r25, 0x01	; 1
    19bc:	01 97       	sbiw	r24, 0x01	; 1
    19be:	f1 f7       	brne	.-4      	; 0x19bc <_Z11LCD_Commandh+0x4c>
    19c0:	00 c0       	rjmp	.+0      	; 0x19c2 <_Z11LCD_Commandh+0x52>
    19c2:	00 00       	nop
    19c4:	08 95       	ret

000019c6 <_Z8LCD_Charh>:
    19c6:	95 b1       	in	r25, 0x05	; 5
    19c8:	9f 70       	andi	r25, 0x0F	; 15
    19ca:	28 2f       	mov	r18, r24
    19cc:	20 7f       	andi	r18, 0xF0	; 240
    19ce:	92 2b       	or	r25, r18
    19d0:	95 b9       	out	0x05, r25	; 5
    19d2:	95 b1       	in	r25, 0x05	; 5
    19d4:	91 60       	ori	r25, 0x01	; 1
    19d6:	95 b9       	out	0x05, r25	; 5
    19d8:	95 b1       	in	r25, 0x05	; 5
    19da:	92 60       	ori	r25, 0x02	; 2
    19dc:	95 b9       	out	0x05, r25	; 5
    19de:	00 00       	nop
    19e0:	95 b1       	in	r25, 0x05	; 5
    19e2:	9d 7f       	andi	r25, 0xFD	; 253
    19e4:	95 b9       	out	0x05, r25	; 5
    19e6:	32 e4       	ldi	r19, 0x42	; 66
    19e8:	3a 95       	dec	r19
    19ea:	f1 f7       	brne	.-4      	; 0x19e8 <_Z8LCD_Charh+0x22>
    19ec:	00 c0       	rjmp	.+0      	; 0x19ee <_Z8LCD_Charh+0x28>
    19ee:	25 b1       	in	r18, 0x05	; 5
    19f0:	30 e1       	ldi	r19, 0x10	; 16
    19f2:	83 9f       	mul	r24, r19
    19f4:	c0 01       	movw	r24, r0
    19f6:	11 24       	eor	r1, r1
    19f8:	92 2f       	mov	r25, r18
    19fa:	9f 70       	andi	r25, 0x0F	; 15
    19fc:	89 2b       	or	r24, r25
    19fe:	85 b9       	out	0x05, r24	; 5
    1a00:	85 b1       	in	r24, 0x05	; 5
    1a02:	82 60       	ori	r24, 0x02	; 2
    1a04:	85 b9       	out	0x05, r24	; 5
    1a06:	00 00       	nop
    1a08:	85 b1       	in	r24, 0x05	; 5
    1a0a:	8d 7f       	andi	r24, 0xFD	; 253
    1a0c:	85 b9       	out	0x05, r24	; 5
    1a0e:	83 ef       	ldi	r24, 0xF3	; 243
    1a10:	91 e0       	ldi	r25, 0x01	; 1
    1a12:	01 97       	sbiw	r24, 0x01	; 1
    1a14:	f1 f7       	brne	.-4      	; 0x1a12 <_Z8LCD_Charh+0x4c>
    1a16:	00 c0       	rjmp	.+0      	; 0x1a18 <_Z8LCD_Charh+0x52>
    1a18:	00 00       	nop
    1a1a:	08 95       	ret

00001a1c <_Z8LCD_Initv>:
    1a1c:	8f ef       	ldi	r24, 0xFF	; 255
    1a1e:	84 b9       	out	0x04, r24	; 4
    1a20:	87 e8       	ldi	r24, 0x87	; 135
    1a22:	93 e1       	ldi	r25, 0x13	; 19
    1a24:	01 97       	sbiw	r24, 0x01	; 1
    1a26:	f1 f7       	brne	.-4      	; 0x1a24 <_Z8LCD_Initv+0x8>
    1a28:	00 c0       	rjmp	.+0      	; 0x1a2a <_Z8LCD_Initv+0xe>
    1a2a:	00 00       	nop
    1a2c:	82 e0       	ldi	r24, 0x02	; 2
    1a2e:	0e 94 b8 0c 	call	0x1970	; 0x1970 <_Z11LCD_Commandh>
    1a32:	88 e2       	ldi	r24, 0x28	; 40
    1a34:	0e 94 b8 0c 	call	0x1970	; 0x1970 <_Z11LCD_Commandh>
    1a38:	8c e0       	ldi	r24, 0x0C	; 12
    1a3a:	0e 94 b8 0c 	call	0x1970	; 0x1970 <_Z11LCD_Commandh>
    1a3e:	86 e0       	ldi	r24, 0x06	; 6
    1a40:	0e 94 b8 0c 	call	0x1970	; 0x1970 <_Z11LCD_Commandh>
    1a44:	81 e0       	ldi	r24, 0x01	; 1
    1a46:	0e 94 b8 0c 	call	0x1970	; 0x1970 <_Z11LCD_Commandh>
    1a4a:	83 ef       	ldi	r24, 0xF3	; 243
    1a4c:	91 e0       	ldi	r25, 0x01	; 1
    1a4e:	01 97       	sbiw	r24, 0x01	; 1
    1a50:	f1 f7       	brne	.-4      	; 0x1a4e <_Z8LCD_Initv+0x32>
    1a52:	00 c0       	rjmp	.+0      	; 0x1a54 <_Z8LCD_Initv+0x38>
    1a54:	00 00       	nop
    1a56:	08 95       	ret

00001a58 <_Z10LCD_StringPc>:
    1a58:	0f 93       	push	r16
    1a5a:	1f 93       	push	r17
    1a5c:	cf 93       	push	r28
    1a5e:	df 93       	push	r29
    1a60:	8c 01       	movw	r16, r24
    1a62:	c0 e0       	ldi	r28, 0x00	; 0
    1a64:	d0 e0       	ldi	r29, 0x00	; 0
    1a66:	f8 01       	movw	r30, r16
    1a68:	ec 0f       	add	r30, r28
    1a6a:	fd 1f       	adc	r31, r29
    1a6c:	80 81       	ld	r24, Z
    1a6e:	88 23       	and	r24, r24
    1a70:	21 f0       	breq	.+8      	; 0x1a7a <_Z10LCD_StringPc+0x22>
    1a72:	0e 94 e3 0c 	call	0x19c6	; 0x19c6 <_Z8LCD_Charh>
    1a76:	21 96       	adiw	r28, 0x01	; 1
    1a78:	f6 cf       	rjmp	.-20     	; 0x1a66 <_Z10LCD_StringPc+0xe>
    1a7a:	df 91       	pop	r29
    1a7c:	cf 91       	pop	r28
    1a7e:	1f 91       	pop	r17
    1a80:	0f 91       	pop	r16
    1a82:	08 95       	ret

00001a84 <_Z9LCD_Clearv>:

void LCD_Clear()
{
	LCD_Command (0x01);		/* Clear display */
    1a84:	81 e0       	ldi	r24, 0x01	; 1
    1a86:	0e 94 b8 0c 	call	0x1970	; 0x1970 <_Z11LCD_Commandh>
	#else
		//round up by default
		__ticks_dc = (uint32_t)(ceil(fabs(__tmp)));
	#endif

	__builtin_avr_delay_cycles(__ticks_dc);
    1a8a:	83 ef       	ldi	r24, 0xF3	; 243
    1a8c:	91 e0       	ldi	r25, 0x01	; 1
    1a8e:	01 97       	sbiw	r24, 0x01	; 1
    1a90:	f1 f7       	brne	.-4      	; 0x1a8e <_Z9LCD_Clearv+0xa>
    1a92:	00 c0       	rjmp	.+0      	; 0x1a94 <_Z9LCD_Clearv+0x10>
    1a94:	00 00       	nop
	_delay_ms(2);
	LCD_Command (0x80);		/* Cursor at home position */
    1a96:	80 e8       	ldi	r24, 0x80	; 128
    1a98:	0e 94 b8 0c 	call	0x1970	; 0x1970 <_Z11LCD_Commandh>
    1a9c:	08 95       	ret

00001a9e <_Z8LCD_Homei>:
}
void LCD_Home(int r){
	if(r==0){
    1a9e:	89 2b       	or	r24, r25
    1aa0:	21 f4       	brne	.+8      	; 0x1aaa <_Z8LCD_Homei+0xc>
		LCD_Command (0x80);
    1aa2:	80 e8       	ldi	r24, 0x80	; 128
    1aa4:	0e 94 b8 0c 	call	0x1970	; 0x1970 <_Z11LCD_Commandh>
    1aa8:	08 95       	ret
	}
	else{
		LCD_Command (0xC0);
    1aaa:	80 ec       	ldi	r24, 0xC0	; 192
    1aac:	0e 94 b8 0c 	call	0x1970	; 0x1970 <_Z11LCD_Commandh>
    1ab0:	08 95       	ret

00001ab2 <_Z9LCD_BlinkPc>:
	}
}
int blink_var=0;
void LCD_Blink(char ch[10]){
	if (blink_var==0){
    1ab2:	20 91 1d 02 	lds	r18, 0x021D	; 0x80021d <blink_var>
    1ab6:	30 91 1e 02 	lds	r19, 0x021E	; 0x80021e <blink_var+0x1>
    1aba:	23 2b       	or	r18, r19
    1abc:	79 f4       	brne	.+30     	; 0x1adc <_Z9LCD_BlinkPc+0x2a>
		LCD_String(ch);
    1abe:	0e 94 2c 0d 	call	0x1a58	; 0x1a58 <_Z10LCD_StringPc>
		blink_var=1;
    1ac2:	81 e0       	ldi	r24, 0x01	; 1
    1ac4:	90 e0       	ldi	r25, 0x00	; 0
    1ac6:	90 93 1e 02 	sts	0x021E, r25	; 0x80021e <blink_var+0x1>
    1aca:	80 93 1d 02 	sts	0x021D, r24	; 0x80021d <blink_var>
    1ace:	87 ea       	ldi	r24, 0xA7	; 167
    1ad0:	91 e6       	ldi	r25, 0x61	; 97
    1ad2:	01 97       	sbiw	r24, 0x01	; 1
    1ad4:	f1 f7       	brne	.-4      	; 0x1ad2 <_Z9LCD_BlinkPc+0x20>
    1ad6:	00 c0       	rjmp	.+0      	; 0x1ad8 <_Z9LCD_BlinkPc+0x26>
    1ad8:	00 00       	nop
    1ada:	08 95       	ret
		_delay_ms(100);
	}
	else{
		LCD_String(" ");
    1adc:	8d e9       	ldi	r24, 0x9D	; 157
    1ade:	91 e0       	ldi	r25, 0x01	; 1
    1ae0:	0e 94 2c 0d 	call	0x1a58	; 0x1a58 <_Z10LCD_StringPc>
		blink_var=0;
    1ae4:	10 92 1e 02 	sts	0x021E, r1	; 0x80021e <blink_var+0x1>
    1ae8:	10 92 1d 02 	sts	0x021D, r1	; 0x80021d <blink_var>
    1aec:	87 ea       	ldi	r24, 0xA7	; 167
    1aee:	91 e6       	ldi	r25, 0x61	; 97
    1af0:	01 97       	sbiw	r24, 0x01	; 1
    1af2:	f1 f7       	brne	.-4      	; 0x1af0 <_Z9LCD_BlinkPc+0x3e>
    1af4:	00 c0       	rjmp	.+0      	; 0x1af6 <_Z9LCD_BlinkPc+0x44>
    1af6:	00 00       	nop
    1af8:	08 95       	ret

00001afa <_Z13displayTypingii>:
		_delay_ms(100);
	}
}
void displayTyping(int val,int pos){
    1afa:	ef 92       	push	r14
    1afc:	ff 92       	push	r15
    1afe:	0f 93       	push	r16
    1b00:	1f 93       	push	r17
    1b02:	cf 93       	push	r28
    1b04:	df 93       	push	r29
    1b06:	00 d0       	rcall	.+0      	; 0x1b08 <_Z13displayTypingii+0xe>
    1b08:	00 d0       	rcall	.+0      	; 0x1b0a <_Z13displayTypingii+0x10>
    1b0a:	cd b7       	in	r28, 0x3d	; 61
    1b0c:	de b7       	in	r29, 0x3e	; 62
    1b0e:	8b 01       	movw	r16, r22
	char val0S[2];char val1S[2];
	itoa(val/10,val0S,10);itoa(val%10,val1S,10);
    1b10:	6a e0       	ldi	r22, 0x0A	; 10
    1b12:	70 e0       	ldi	r23, 0x00	; 0
    1b14:	0e 94 40 14 	call	0x2880	; 0x2880 <__divmodhi4>
    1b18:	9b 01       	movw	r18, r22
    1b1a:	7c 01       	movw	r14, r24
    1b1c:	4a e0       	ldi	r20, 0x0A	; 10
    1b1e:	be 01       	movw	r22, r28
    1b20:	6f 5f       	subi	r22, 0xFF	; 255
    1b22:	7f 4f       	sbci	r23, 0xFF	; 255
    1b24:	c9 01       	movw	r24, r18
    1b26:	0e 94 68 14 	call	0x28d0	; 0x28d0 <__itoa_ncheck>
    1b2a:	4a e0       	ldi	r20, 0x0A	; 10
    1b2c:	be 01       	movw	r22, r28
    1b2e:	6d 5f       	subi	r22, 0xFD	; 253
    1b30:	7f 4f       	sbci	r23, 0xFF	; 255
    1b32:	c7 01       	movw	r24, r14
    1b34:	0e 94 68 14 	call	0x28d0	; 0x28d0 <__itoa_ncheck>
	if (pos==0){
    1b38:	01 15       	cp	r16, r1
    1b3a:	11 05       	cpc	r17, r1
    1b3c:	49 f4       	brne	.+18     	; 0x1b50 <_Z13displayTypingii+0x56>
		LCD_Blink(val0S);
    1b3e:	ce 01       	movw	r24, r28
    1b40:	01 96       	adiw	r24, 0x01	; 1
    1b42:	0e 94 59 0d 	call	0x1ab2	; 0x1ab2 <_Z9LCD_BlinkPc>
		LCD_String(val1S);
    1b46:	ce 01       	movw	r24, r28
    1b48:	03 96       	adiw	r24, 0x03	; 3
    1b4a:	0e 94 2c 0d 	call	0x1a58	; 0x1a58 <_Z10LCD_StringPc>
    1b4e:	14 c0       	rjmp	.+40     	; 0x1b78 <_Z13displayTypingii+0x7e>
	}
	else if (pos==1){
    1b50:	01 30       	cpi	r16, 0x01	; 1
    1b52:	11 05       	cpc	r17, r1
    1b54:	49 f4       	brne	.+18     	; 0x1b68 <_Z13displayTypingii+0x6e>
		LCD_String(val0S);
    1b56:	ce 01       	movw	r24, r28
    1b58:	01 96       	adiw	r24, 0x01	; 1
    1b5a:	0e 94 2c 0d 	call	0x1a58	; 0x1a58 <_Z10LCD_StringPc>
		LCD_Blink(val1S);
    1b5e:	ce 01       	movw	r24, r28
    1b60:	03 96       	adiw	r24, 0x03	; 3
    1b62:	0e 94 59 0d 	call	0x1ab2	; 0x1ab2 <_Z9LCD_BlinkPc>
    1b66:	08 c0       	rjmp	.+16     	; 0x1b78 <_Z13displayTypingii+0x7e>
	}
	else{
		LCD_String(val0S);LCD_String(val1S);
    1b68:	ce 01       	movw	r24, r28
    1b6a:	01 96       	adiw	r24, 0x01	; 1
    1b6c:	0e 94 2c 0d 	call	0x1a58	; 0x1a58 <_Z10LCD_StringPc>
    1b70:	ce 01       	movw	r24, r28
    1b72:	03 96       	adiw	r24, 0x03	; 3
    1b74:	0e 94 2c 0d 	call	0x1a58	; 0x1a58 <_Z10LCD_StringPc>
	}
}
    1b78:	0f 90       	pop	r0
    1b7a:	0f 90       	pop	r0
    1b7c:	0f 90       	pop	r0
    1b7e:	0f 90       	pop	r0
    1b80:	df 91       	pop	r29
    1b82:	cf 91       	pop	r28
    1b84:	1f 91       	pop	r17
    1b86:	0f 91       	pop	r16
    1b88:	ff 90       	pop	r15
    1b8a:	ef 90       	pop	r14
    1b8c:	08 95       	ret

00001b8e <_Z12LCD_SetAlarmci>:
int clkTime = 0;
int num = 0;
signed int p = 3;
void LCD_SetAlarm(char key,int state){
    1b8e:	ef 92       	push	r14
    1b90:	ff 92       	push	r15
    1b92:	0f 93       	push	r16
    1b94:	1f 93       	push	r17
    1b96:	cf 93       	push	r28
    1b98:	df 93       	push	r29
    1b9a:	08 2f       	mov	r16, r24
    1b9c:	eb 01       	movw	r28, r22
	LCD_Home(0);
    1b9e:	80 e0       	ldi	r24, 0x00	; 0
    1ba0:	90 e0       	ldi	r25, 0x00	; 0
    1ba2:	0e 94 4f 0d 	call	0x1a9e	; 0x1a9e <_Z8LCD_Homei>
	displayTyping(clkTime/100,3-p);
    1ba6:	80 91 6a 01 	lds	r24, 0x016A	; 0x80016a <p>
    1baa:	90 91 6b 01 	lds	r25, 0x016B	; 0x80016b <p+0x1>
    1bae:	23 e0       	ldi	r18, 0x03	; 3
    1bb0:	30 e0       	ldi	r19, 0x00	; 0
    1bb2:	28 1b       	sub	r18, r24
    1bb4:	39 0b       	sbc	r19, r25
    1bb6:	80 91 1b 02 	lds	r24, 0x021B	; 0x80021b <clkTime>
    1bba:	90 91 1c 02 	lds	r25, 0x021C	; 0x80021c <clkTime+0x1>
    1bbe:	0f 2e       	mov	r0, r31
    1bc0:	f4 e6       	ldi	r31, 0x64	; 100
    1bc2:	ef 2e       	mov	r14, r31
    1bc4:	f1 2c       	mov	r15, r1
    1bc6:	f0 2d       	mov	r31, r0
    1bc8:	b7 01       	movw	r22, r14
    1bca:	0e 94 40 14 	call	0x2880	; 0x2880 <__divmodhi4>
    1bce:	cb 01       	movw	r24, r22
    1bd0:	b9 01       	movw	r22, r18
    1bd2:	0e 94 7d 0d 	call	0x1afa	; 0x1afa <_Z13displayTypingii>
	LCD_String(":");
    1bd6:	8f e9       	ldi	r24, 0x9F	; 159
    1bd8:	91 e0       	ldi	r25, 0x01	; 1
    1bda:	0e 94 2c 0d 	call	0x1a58	; 0x1a58 <_Z10LCD_StringPc>
	displayTyping(clkTime%100,1-p);
    1bde:	80 91 6a 01 	lds	r24, 0x016A	; 0x80016a <p>
    1be2:	90 91 6b 01 	lds	r25, 0x016B	; 0x80016b <p+0x1>
    1be6:	21 e0       	ldi	r18, 0x01	; 1
    1be8:	30 e0       	ldi	r19, 0x00	; 0
    1bea:	28 1b       	sub	r18, r24
    1bec:	39 0b       	sbc	r19, r25
    1bee:	80 91 1b 02 	lds	r24, 0x021B	; 0x80021b <clkTime>
    1bf2:	90 91 1c 02 	lds	r25, 0x021C	; 0x80021c <clkTime+0x1>
    1bf6:	b7 01       	movw	r22, r14
    1bf8:	0e 94 40 14 	call	0x2880	; 0x2880 <__divmodhi4>
    1bfc:	b9 01       	movw	r22, r18
    1bfe:	0e 94 7d 0d 	call	0x1afa	; 0x1afa <_Z13displayTypingii>
	
	//LCD_String("0000");
	if (int(key)>47 & int(key)<58 & state ==2 & p!=-1){
    1c02:	80 ed       	ldi	r24, 0xD0	; 208
    1c04:	80 0f       	add	r24, r16
    1c06:	91 e0       	ldi	r25, 0x01	; 1
    1c08:	8a 30       	cpi	r24, 0x0A	; 10
    1c0a:	08 f0       	brcs	.+2      	; 0x1c0e <_Z12LCD_SetAlarmci+0x80>
    1c0c:	90 e0       	ldi	r25, 0x00	; 0
    1c0e:	81 e0       	ldi	r24, 0x01	; 1
    1c10:	c2 30       	cpi	r28, 0x02	; 2
    1c12:	d1 05       	cpc	r29, r1
    1c14:	09 f0       	breq	.+2      	; 0x1c18 <_Z12LCD_SetAlarmci+0x8a>
    1c16:	80 e0       	ldi	r24, 0x00	; 0
    1c18:	60 91 6a 01 	lds	r22, 0x016A	; 0x80016a <p>
    1c1c:	70 91 6b 01 	lds	r23, 0x016B	; 0x80016b <p+0x1>
    1c20:	21 e0       	ldi	r18, 0x01	; 1
    1c22:	6f 3f       	cpi	r22, 0xFF	; 255
    1c24:	3f ef       	ldi	r19, 0xFF	; 255
    1c26:	73 07       	cpc	r23, r19
    1c28:	09 f4       	brne	.+2      	; 0x1c2c <_Z12LCD_SetAlarmci+0x9e>
    1c2a:	20 e0       	ldi	r18, 0x00	; 0
    1c2c:	89 23       	and	r24, r25
    1c2e:	69 f1       	breq	.+90     	; 0x1c8a <_Z12LCD_SetAlarmci+0xfc>
    1c30:	22 23       	and	r18, r18
    1c32:	59 f1       	breq	.+86     	; 0x1c8a <_Z12LCD_SetAlarmci+0xfc>
		clkTime += (int(key)-48)*powerOf(10,p);
    1c34:	10 e0       	ldi	r17, 0x00	; 0
    1c36:	00 53       	subi	r16, 0x30	; 48
    1c38:	11 09       	sbc	r17, r1
    1c3a:	8a e0       	ldi	r24, 0x0A	; 10
    1c3c:	90 e0       	ldi	r25, 0x00	; 0
    1c3e:	0e 94 23 08 	call	0x1046	; 0x1046 <_Z7powerOfii>
    1c42:	9c 01       	movw	r18, r24
    1c44:	02 9f       	mul	r16, r18
    1c46:	c0 01       	movw	r24, r0
    1c48:	03 9f       	mul	r16, r19
    1c4a:	90 0d       	add	r25, r0
    1c4c:	12 9f       	mul	r17, r18
    1c4e:	90 0d       	add	r25, r0
    1c50:	11 24       	eor	r1, r1
    1c52:	20 91 1b 02 	lds	r18, 0x021B	; 0x80021b <clkTime>
    1c56:	30 91 1c 02 	lds	r19, 0x021C	; 0x80021c <clkTime+0x1>
    1c5a:	82 0f       	add	r24, r18
    1c5c:	93 1f       	adc	r25, r19
    1c5e:	90 93 1c 02 	sts	0x021C, r25	; 0x80021c <clkTime+0x1>
    1c62:	80 93 1b 02 	sts	0x021B, r24	; 0x80021b <clkTime>
		p--;
    1c66:	80 91 6a 01 	lds	r24, 0x016A	; 0x80016a <p>
    1c6a:	90 91 6b 01 	lds	r25, 0x016B	; 0x80016b <p+0x1>
    1c6e:	01 97       	sbiw	r24, 0x01	; 1
    1c70:	90 93 6b 01 	sts	0x016B, r25	; 0x80016b <p+0x1>
    1c74:	80 93 6a 01 	sts	0x016A, r24	; 0x80016a <p>
    1c78:	3f eb       	ldi	r19, 0xBF	; 191
    1c7a:	84 ed       	ldi	r24, 0xD4	; 212
    1c7c:	91 e0       	ldi	r25, 0x01	; 1
    1c7e:	31 50       	subi	r19, 0x01	; 1
    1c80:	80 40       	sbci	r24, 0x00	; 0
    1c82:	90 40       	sbci	r25, 0x00	; 0
    1c84:	e1 f7       	brne	.-8      	; 0x1c7e <_Z12LCD_SetAlarmci+0xf0>
    1c86:	00 c0       	rjmp	.+0      	; 0x1c88 <_Z12LCD_SetAlarmci+0xfa>
    1c88:	00 00       	nop
		_delay_ms(600);
	}
	if (state==3){
    1c8a:	23 97       	sbiw	r28, 0x03	; 3
    1c8c:	09 f0       	breq	.+2      	; 0x1c90 <_Z12LCD_SetAlarmci+0x102>
    1c8e:	48 c0       	rjmp	.+144    	; 0x1d20 <_Z12LCD_SetAlarmci+0x192>
		setAlarm(clkTime);
    1c90:	80 91 1b 02 	lds	r24, 0x021B	; 0x80021b <clkTime>
    1c94:	90 91 1c 02 	lds	r25, 0x021C	; 0x80021c <clkTime+0x1>
    1c98:	0e 94 40 08 	call	0x1080	; 0x1080 <_Z8setAlarmi>
		LCD_Home(0);
    1c9c:	80 e0       	ldi	r24, 0x00	; 0
    1c9e:	90 e0       	ldi	r25, 0x00	; 0
    1ca0:	0e 94 4f 0d 	call	0x1a9e	; 0x1a9e <_Z8LCD_Homei>
		LCD_String("ALARM IS SET TO");
    1ca4:	81 ea       	ldi	r24, 0xA1	; 161
    1ca6:	91 e0       	ldi	r25, 0x01	; 1
    1ca8:	0e 94 2c 0d 	call	0x1a58	; 0x1a58 <_Z10LCD_StringPc>
		LCD_Home(1);
    1cac:	81 e0       	ldi	r24, 0x01	; 1
    1cae:	90 e0       	ldi	r25, 0x00	; 0
    1cb0:	0e 94 4f 0d 	call	0x1a9e	; 0x1a9e <_Z8LCD_Homei>
		displayTyping(clkTime/100,3);LCD_String(":");displayTyping(clkTime%100,3);
    1cb4:	80 91 1b 02 	lds	r24, 0x021B	; 0x80021b <clkTime>
    1cb8:	90 91 1c 02 	lds	r25, 0x021C	; 0x80021c <clkTime+0x1>
    1cbc:	c4 e6       	ldi	r28, 0x64	; 100
    1cbe:	d0 e0       	ldi	r29, 0x00	; 0
    1cc0:	be 01       	movw	r22, r28
    1cc2:	0e 94 40 14 	call	0x2880	; 0x2880 <__divmodhi4>
    1cc6:	cb 01       	movw	r24, r22
    1cc8:	63 e0       	ldi	r22, 0x03	; 3
    1cca:	70 e0       	ldi	r23, 0x00	; 0
    1ccc:	0e 94 7d 0d 	call	0x1afa	; 0x1afa <_Z13displayTypingii>
    1cd0:	8f e9       	ldi	r24, 0x9F	; 159
    1cd2:	91 e0       	ldi	r25, 0x01	; 1
    1cd4:	0e 94 2c 0d 	call	0x1a58	; 0x1a58 <_Z10LCD_StringPc>
    1cd8:	80 91 1b 02 	lds	r24, 0x021B	; 0x80021b <clkTime>
    1cdc:	90 91 1c 02 	lds	r25, 0x021C	; 0x80021c <clkTime+0x1>
    1ce0:	be 01       	movw	r22, r28
    1ce2:	0e 94 40 14 	call	0x2880	; 0x2880 <__divmodhi4>
    1ce6:	63 e0       	ldi	r22, 0x03	; 3
    1ce8:	70 e0       	ldi	r23, 0x00	; 0
    1cea:	0e 94 7d 0d 	call	0x1afa	; 0x1afa <_Z13displayTypingii>
		clkTime=0;num=0;p=3;
    1cee:	10 92 1c 02 	sts	0x021C, r1	; 0x80021c <clkTime+0x1>
    1cf2:	10 92 1b 02 	sts	0x021B, r1	; 0x80021b <clkTime>
    1cf6:	10 92 1a 02 	sts	0x021A, r1	; 0x80021a <num+0x1>
    1cfa:	10 92 19 02 	sts	0x0219, r1	; 0x800219 <num>
    1cfe:	83 e0       	ldi	r24, 0x03	; 3
    1d00:	90 e0       	ldi	r25, 0x00	; 0
    1d02:	90 93 6b 01 	sts	0x016B, r25	; 0x80016b <p+0x1>
    1d06:	80 93 6a 01 	sts	0x016A, r24	; 0x80016a <p>
    1d0a:	2f e7       	ldi	r18, 0x7F	; 127
    1d0c:	3a e1       	ldi	r19, 0x1A	; 26
    1d0e:	86 e0       	ldi	r24, 0x06	; 6
    1d10:	21 50       	subi	r18, 0x01	; 1
    1d12:	30 40       	sbci	r19, 0x00	; 0
    1d14:	80 40       	sbci	r24, 0x00	; 0
    1d16:	e1 f7       	brne	.-8      	; 0x1d10 <_Z12LCD_SetAlarmci+0x182>
    1d18:	00 c0       	rjmp	.+0      	; 0x1d1a <_Z12LCD_SetAlarmci+0x18c>
    1d1a:	00 00       	nop
		_delay_ms(2000);
		LCD_Clear();
    1d1c:	0e 94 42 0d 	call	0x1a84	; 0x1a84 <_Z9LCD_Clearv>
	}


}
    1d20:	df 91       	pop	r29
    1d22:	cf 91       	pop	r28
    1d24:	1f 91       	pop	r17
    1d26:	0f 91       	pop	r16
    1d28:	ff 90       	pop	r15
    1d2a:	ef 90       	pop	r14
    1d2c:	08 95       	ret

00001d2e <_Z11LCD_SetDateii>:
int clockTime[6];
int ClockState = 0;
int temp = 0;
int data = 0;
char dataS[10];
void LCD_SetDate(int key, int state){
    1d2e:	0f 93       	push	r16
    1d30:	1f 93       	push	r17
    1d32:	cf 93       	push	r28
    1d34:	df 93       	push	r29
    1d36:	ec 01       	movw	r28, r24
    1d38:	8b 01       	movw	r16, r22
	LCD_Home(0);
    1d3a:	80 e0       	ldi	r24, 0x00	; 0
    1d3c:	90 e0       	ldi	r25, 0x00	; 0
    1d3e:	0e 94 4f 0d 	call	0x1a9e	; 0x1a9e <_Z8LCD_Homei>
	LCD_String("2");displayTyping(45,1);
    1d42:	81 eb       	ldi	r24, 0xB1	; 177
    1d44:	91 e0       	ldi	r25, 0x01	; 1
    1d46:	0e 94 2c 0d 	call	0x1a58	; 0x1a58 <_Z10LCD_StringPc>
    1d4a:	61 e0       	ldi	r22, 0x01	; 1
    1d4c:	70 e0       	ldi	r23, 0x00	; 0
    1d4e:	8d e2       	ldi	r24, 0x2D	; 45
    1d50:	90 e0       	ldi	r25, 0x00	; 0
    1d52:	0e 94 7d 0d 	call	0x1afa	; 0x1afa <_Z13displayTypingii>
	if (int(key)>47 & int(key)<58 & state ==2){
    1d56:	9e 01       	movw	r18, r28
    1d58:	20 53       	subi	r18, 0x30	; 48
    1d5a:	31 09       	sbc	r19, r1
    1d5c:	81 e0       	ldi	r24, 0x01	; 1
    1d5e:	2a 30       	cpi	r18, 0x0A	; 10
    1d60:	31 05       	cpc	r19, r1
    1d62:	08 f0       	brcs	.+2      	; 0x1d66 <_Z11LCD_SetDateii+0x38>
    1d64:	80 e0       	ldi	r24, 0x00	; 0
    1d66:	91 e0       	ldi	r25, 0x01	; 1
    1d68:	02 30       	cpi	r16, 0x02	; 2
    1d6a:	11 05       	cpc	r17, r1
    1d6c:	09 f0       	breq	.+2      	; 0x1d70 <_Z11LCD_SetDateii+0x42>
    1d6e:	90 e0       	ldi	r25, 0x00	; 0
    1d70:	88 23       	and	r24, r24
    1d72:	09 f4       	brne	.+2      	; 0x1d76 <_Z11LCD_SetDateii+0x48>
    1d74:	5c c0       	rjmp	.+184    	; 0x1e2e <_Z11LCD_SetDateii+0x100>
    1d76:	99 23       	and	r25, r25
    1d78:	09 f4       	brne	.+2      	; 0x1d7c <_Z11LCD_SetDateii+0x4e>
    1d7a:	59 c0       	rjmp	.+178    	; 0x1e2e <_Z11LCD_SetDateii+0x100>
		data+=(int(key)-48);
    1d7c:	e0 97       	sbiw	r28, 0x30	; 48
    1d7e:	80 91 07 02 	lds	r24, 0x0207	; 0x800207 <data>
    1d82:	90 91 08 02 	lds	r25, 0x0208	; 0x800208 <data+0x1>
    1d86:	8c 0f       	add	r24, r28
    1d88:	9d 1f       	adc	r25, r29
    1d8a:	90 93 08 02 	sts	0x0208, r25	; 0x800208 <data+0x1>
    1d8e:	80 93 07 02 	sts	0x0207, r24	; 0x800207 <data>
    1d92:	4a e0       	ldi	r20, 0x0A	; 10
    1d94:	6d ef       	ldi	r22, 0xFD	; 253
    1d96:	71 e0       	ldi	r23, 0x01	; 1
    1d98:	0e 94 68 14 	call	0x28d0	; 0x28d0 <__itoa_ncheck>
		itoa(data,dataS,10);
		LCD_String(dataS);
    1d9c:	8d ef       	ldi	r24, 0xFD	; 253
    1d9e:	91 e0       	ldi	r25, 0x01	; 1
    1da0:	0e 94 2c 0d 	call	0x1a58	; 0x1a58 <_Z10LCD_StringPc>
    1da4:	2f ef       	ldi	r18, 0xFF	; 255
    1da6:	80 e7       	ldi	r24, 0x70	; 112
    1da8:	92 e0       	ldi	r25, 0x02	; 2
    1daa:	21 50       	subi	r18, 0x01	; 1
    1dac:	80 40       	sbci	r24, 0x00	; 0
    1dae:	90 40       	sbci	r25, 0x00	; 0
    1db0:	e1 f7       	brne	.-8      	; 0x1daa <_Z11LCD_SetDateii+0x7c>
    1db2:	00 c0       	rjmp	.+0      	; 0x1db4 <_Z11LCD_SetDateii+0x86>
    1db4:	00 00       	nop
		_delay_ms(800);
		if (temp == 0){
    1db6:	80 91 09 02 	lds	r24, 0x0209	; 0x800209 <temp>
    1dba:	90 91 0a 02 	lds	r25, 0x020A	; 0x80020a <temp+0x1>
    1dbe:	89 2b       	or	r24, r25
    1dc0:	d1 f4       	brne	.+52     	; 0x1df6 <_Z11LCD_SetDateii+0xc8>
			data*=10;
    1dc2:	80 91 07 02 	lds	r24, 0x0207	; 0x800207 <data>
    1dc6:	90 91 08 02 	lds	r25, 0x0208	; 0x800208 <data+0x1>
    1dca:	9c 01       	movw	r18, r24
    1dcc:	22 0f       	add	r18, r18
    1dce:	33 1f       	adc	r19, r19
    1dd0:	88 0f       	add	r24, r24
    1dd2:	99 1f       	adc	r25, r25
    1dd4:	88 0f       	add	r24, r24
    1dd6:	99 1f       	adc	r25, r25
    1dd8:	88 0f       	add	r24, r24
    1dda:	99 1f       	adc	r25, r25
    1ddc:	82 0f       	add	r24, r18
    1dde:	93 1f       	adc	r25, r19
    1de0:	90 93 08 02 	sts	0x0208, r25	; 0x800208 <data+0x1>
    1de4:	80 93 07 02 	sts	0x0207, r24	; 0x800207 <data>
			temp = 1;
    1de8:	81 e0       	ldi	r24, 0x01	; 1
    1dea:	90 e0       	ldi	r25, 0x00	; 0
    1dec:	90 93 0a 02 	sts	0x020A, r25	; 0x80020a <temp+0x1>
    1df0:	80 93 09 02 	sts	0x0209, r24	; 0x800209 <temp>
    1df4:	1c c0       	rjmp	.+56     	; 0x1e2e <_Z11LCD_SetDateii+0x100>
		}
		else{
			clockTime[ClockState] = data;
    1df6:	80 91 0b 02 	lds	r24, 0x020B	; 0x80020b <ClockState>
    1dfa:	90 91 0c 02 	lds	r25, 0x020C	; 0x80020c <ClockState+0x1>
    1dfe:	fc 01       	movw	r30, r24
    1e00:	ee 0f       	add	r30, r30
    1e02:	ff 1f       	adc	r31, r31
    1e04:	e3 5f       	subi	r30, 0xF3	; 243
    1e06:	fd 4f       	sbci	r31, 0xFD	; 253
    1e08:	20 91 07 02 	lds	r18, 0x0207	; 0x800207 <data>
    1e0c:	30 91 08 02 	lds	r19, 0x0208	; 0x800208 <data+0x1>
    1e10:	31 83       	std	Z+1, r19	; 0x01
    1e12:	20 83       	st	Z, r18
			ClockState++;
    1e14:	01 96       	adiw	r24, 0x01	; 1
    1e16:	90 93 0c 02 	sts	0x020C, r25	; 0x80020c <ClockState+0x1>
    1e1a:	80 93 0b 02 	sts	0x020B, r24	; 0x80020b <ClockState>
			data=0;
    1e1e:	10 92 08 02 	sts	0x0208, r1	; 0x800208 <data+0x1>
    1e22:	10 92 07 02 	sts	0x0207, r1	; 0x800207 <data>
			temp = 0;
    1e26:	10 92 0a 02 	sts	0x020A, r1	; 0x80020a <temp+0x1>
    1e2a:	10 92 09 02 	sts	0x0209, r1	; 0x800209 <temp>
		}
	}
	if (ClockState == 6 & state==3){
    1e2e:	81 e0       	ldi	r24, 0x01	; 1
    1e30:	20 91 0b 02 	lds	r18, 0x020B	; 0x80020b <ClockState>
    1e34:	30 91 0c 02 	lds	r19, 0x020C	; 0x80020c <ClockState+0x1>
    1e38:	26 30       	cpi	r18, 0x06	; 6
    1e3a:	31 05       	cpc	r19, r1
    1e3c:	09 f0       	breq	.+2      	; 0x1e40 <_Z11LCD_SetDateii+0x112>
    1e3e:	80 e0       	ldi	r24, 0x00	; 0
    1e40:	88 23       	and	r24, r24
    1e42:	11 f1       	breq	.+68     	; 0x1e88 <_Z11LCD_SetDateii+0x15a>
    1e44:	81 e0       	ldi	r24, 0x01	; 1
    1e46:	03 30       	cpi	r16, 0x03	; 3
    1e48:	11 05       	cpc	r17, r1
    1e4a:	09 f0       	breq	.+2      	; 0x1e4e <_Z11LCD_SetDateii+0x120>
    1e4c:	80 e0       	ldi	r24, 0x00	; 0
    1e4e:	88 23       	and	r24, r24
    1e50:	d9 f0       	breq	.+54     	; 0x1e88 <_Z11LCD_SetDateii+0x15a>
		setClockTime(clockTime);
    1e52:	8d e0       	ldi	r24, 0x0D	; 13
    1e54:	92 e0       	ldi	r25, 0x02	; 2
    1e56:	0e 94 2b 09 	call	0x1256	; 0x1256 <_Z12setClockTimePi>
		ClockState = 0;
    1e5a:	10 92 0c 02 	sts	0x020C, r1	; 0x80020c <ClockState+0x1>
    1e5e:	10 92 0b 02 	sts	0x020B, r1	; 0x80020b <ClockState>
		LCD_Home(0);
    1e62:	80 e0       	ldi	r24, 0x00	; 0
    1e64:	90 e0       	ldi	r25, 0x00	; 0
    1e66:	0e 94 4f 0d 	call	0x1a9e	; 0x1a9e <_Z8LCD_Homei>
		LCD_String("DATE AND TIME IS SET TO");
    1e6a:	83 eb       	ldi	r24, 0xB3	; 179
    1e6c:	91 e0       	ldi	r25, 0x01	; 1
    1e6e:	0e 94 2c 0d 	call	0x1a58	; 0x1a58 <_Z10LCD_StringPc>
    1e72:	2f e7       	ldi	r18, 0x7F	; 127
    1e74:	8a e1       	ldi	r24, 0x1A	; 26
    1e76:	96 e0       	ldi	r25, 0x06	; 6
    1e78:	21 50       	subi	r18, 0x01	; 1
    1e7a:	80 40       	sbci	r24, 0x00	; 0
    1e7c:	90 40       	sbci	r25, 0x00	; 0
    1e7e:	e1 f7       	brne	.-8      	; 0x1e78 <_Z11LCD_SetDateii+0x14a>
    1e80:	00 c0       	rjmp	.+0      	; 0x1e82 <_Z11LCD_SetDateii+0x154>
    1e82:	00 00       	nop
// 		LCD_Home(1);
// 		LCD_String(clkTimeS);
		_delay_ms(2000);
		LCD_Clear();
    1e84:	0e 94 42 0d 	call	0x1a84	; 0x1a84 <_Z9LCD_Clearv>
	}
}
    1e88:	df 91       	pop	r29
    1e8a:	cf 91       	pop	r28
    1e8c:	1f 91       	pop	r17
    1e8e:	0f 91       	pop	r16
    1e90:	08 95       	ret

00001e92 <_Z8LCD_Toneci>:
char tone_List[5][10] = {"GOT      ","STAR WARS","PINK     ","TONE4    ","TONE5    "};
int tone_Var = 0;
void LCD_Tone(char key,int state){
    1e92:	1f 93       	push	r17
    1e94:	cf 93       	push	r28
    1e96:	df 93       	push	r29
    1e98:	18 2f       	mov	r17, r24
    1e9a:	eb 01       	movw	r28, r22
	LCD_Home(0);
    1e9c:	80 e0       	ldi	r24, 0x00	; 0
    1e9e:	90 e0       	ldi	r25, 0x00	; 0
    1ea0:	0e 94 4f 0d 	call	0x1a9e	; 0x1a9e <_Z8LCD_Homei>
	if (key=='8' & state==2){
    1ea4:	81 e0       	ldi	r24, 0x01	; 1
    1ea6:	c2 30       	cpi	r28, 0x02	; 2
    1ea8:	d1 05       	cpc	r29, r1
    1eaa:	09 f0       	breq	.+2      	; 0x1eae <_Z8LCD_Toneci+0x1c>
    1eac:	80 e0       	ldi	r24, 0x00	; 0
    1eae:	91 e0       	ldi	r25, 0x01	; 1
    1eb0:	18 33       	cpi	r17, 0x38	; 56
    1eb2:	09 f0       	breq	.+2      	; 0x1eb6 <_Z8LCD_Toneci+0x24>
    1eb4:	90 e0       	ldi	r25, 0x00	; 0
    1eb6:	99 23       	and	r25, r25
    1eb8:	a9 f0       	breq	.+42     	; 0x1ee4 <_Z8LCD_Toneci+0x52>
    1eba:	88 23       	and	r24, r24
    1ebc:	99 f0       	breq	.+38     	; 0x1ee4 <_Z8LCD_Toneci+0x52>
		tone_Var++;
    1ebe:	20 91 fb 01 	lds	r18, 0x01FB	; 0x8001fb <tone_Var>
    1ec2:	30 91 fc 01 	lds	r19, 0x01FC	; 0x8001fc <tone_Var+0x1>
    1ec6:	2f 5f       	subi	r18, 0xFF	; 255
    1ec8:	3f 4f       	sbci	r19, 0xFF	; 255
    1eca:	30 93 fc 01 	sts	0x01FC, r19	; 0x8001fc <tone_Var+0x1>
    1ece:	20 93 fb 01 	sts	0x01FB, r18	; 0x8001fb <tone_Var>
    1ed2:	2f ef       	ldi	r18, 0xFF	; 255
    1ed4:	30 e7       	ldi	r19, 0x70	; 112
    1ed6:	92 e0       	ldi	r25, 0x02	; 2
    1ed8:	21 50       	subi	r18, 0x01	; 1
    1eda:	30 40       	sbci	r19, 0x00	; 0
    1edc:	90 40       	sbci	r25, 0x00	; 0
    1ede:	e1 f7       	brne	.-8      	; 0x1ed8 <_Z8LCD_Toneci+0x46>
    1ee0:	00 c0       	rjmp	.+0      	; 0x1ee2 <_Z8LCD_Toneci+0x50>
    1ee2:	00 00       	nop
		//LCD_Clear();
		_delay_ms(800);
	}
	if (key=='2' & state ==2){
    1ee4:	91 e0       	ldi	r25, 0x01	; 1
    1ee6:	12 33       	cpi	r17, 0x32	; 50
    1ee8:	09 f0       	breq	.+2      	; 0x1eec <_Z8LCD_Toneci+0x5a>
    1eea:	90 e0       	ldi	r25, 0x00	; 0
    1eec:	99 23       	and	r25, r25
    1eee:	a1 f0       	breq	.+40     	; 0x1f18 <_Z8LCD_Toneci+0x86>
    1ef0:	88 23       	and	r24, r24
    1ef2:	91 f0       	breq	.+36     	; 0x1f18 <_Z8LCD_Toneci+0x86>
		tone_Var--;
    1ef4:	80 91 fb 01 	lds	r24, 0x01FB	; 0x8001fb <tone_Var>
    1ef8:	90 91 fc 01 	lds	r25, 0x01FC	; 0x8001fc <tone_Var+0x1>
    1efc:	01 97       	sbiw	r24, 0x01	; 1
    1efe:	90 93 fc 01 	sts	0x01FC, r25	; 0x8001fc <tone_Var+0x1>
    1f02:	80 93 fb 01 	sts	0x01FB, r24	; 0x8001fb <tone_Var>
    1f06:	2f ef       	ldi	r18, 0xFF	; 255
    1f08:	30 e7       	ldi	r19, 0x70	; 112
    1f0a:	82 e0       	ldi	r24, 0x02	; 2
    1f0c:	21 50       	subi	r18, 0x01	; 1
    1f0e:	30 40       	sbci	r19, 0x00	; 0
    1f10:	80 40       	sbci	r24, 0x00	; 0
    1f12:	e1 f7       	brne	.-8      	; 0x1f0c <_Z8LCD_Toneci+0x7a>
    1f14:	00 c0       	rjmp	.+0      	; 0x1f16 <_Z8LCD_Toneci+0x84>
    1f16:	00 00       	nop
		//LCD_Clear();
		_delay_ms(800);
	}
	if (tone_Var>4){
    1f18:	80 91 fb 01 	lds	r24, 0x01FB	; 0x8001fb <tone_Var>
    1f1c:	90 91 fc 01 	lds	r25, 0x01FC	; 0x8001fc <tone_Var+0x1>
    1f20:	05 97       	sbiw	r24, 0x05	; 5
    1f22:	24 f0       	brlt	.+8      	; 0x1f2c <_Z8LCD_Toneci+0x9a>
		tone_Var=0;
    1f24:	10 92 fc 01 	sts	0x01FC, r1	; 0x8001fc <tone_Var+0x1>
    1f28:	10 92 fb 01 	sts	0x01FB, r1	; 0x8001fb <tone_Var>
	}
	if (tone_Var<0){
    1f2c:	80 91 fb 01 	lds	r24, 0x01FB	; 0x8001fb <tone_Var>
    1f30:	90 91 fc 01 	lds	r25, 0x01FC	; 0x8001fc <tone_Var+0x1>
    1f34:	99 23       	and	r25, r25
    1f36:	34 f4       	brge	.+12     	; 0x1f44 <_Z8LCD_Toneci+0xb2>
		tone_Var=4;
    1f38:	84 e0       	ldi	r24, 0x04	; 4
    1f3a:	90 e0       	ldi	r25, 0x00	; 0
    1f3c:	90 93 fc 01 	sts	0x01FC, r25	; 0x8001fc <tone_Var+0x1>
    1f40:	80 93 fb 01 	sts	0x01FB, r24	; 0x8001fb <tone_Var>
	}
	if (state==2){
    1f44:	22 97       	sbiw	r28, 0x02	; 2
    1f46:	f9 f4       	brne	.+62     	; 0x1f86 <_Z8LCD_Toneci+0xf4>
		LCD_Home(0);LCD_String(">>");
    1f48:	80 e0       	ldi	r24, 0x00	; 0
    1f4a:	90 e0       	ldi	r25, 0x00	; 0
    1f4c:	0e 94 4f 0d 	call	0x1a9e	; 0x1a9e <_Z8LCD_Homei>
    1f50:	8b ec       	ldi	r24, 0xCB	; 203
    1f52:	91 e0       	ldi	r25, 0x01	; 1
    1f54:	0e 94 2c 0d 	call	0x1a58	; 0x1a58 <_Z10LCD_StringPc>
		LCD_String(tone_List[tone_Var%5]);
    1f58:	80 91 fb 01 	lds	r24, 0x01FB	; 0x8001fb <tone_Var>
    1f5c:	90 91 fc 01 	lds	r25, 0x01FC	; 0x8001fc <tone_Var+0x1>
    1f60:	65 e0       	ldi	r22, 0x05	; 5
    1f62:	70 e0       	ldi	r23, 0x00	; 0
    1f64:	0e 94 40 14 	call	0x2880	; 0x2880 <__divmodhi4>
    1f68:	9c 01       	movw	r18, r24
    1f6a:	22 0f       	add	r18, r18
    1f6c:	33 1f       	adc	r19, r19
    1f6e:	88 0f       	add	r24, r24
    1f70:	99 1f       	adc	r25, r25
    1f72:	88 0f       	add	r24, r24
    1f74:	99 1f       	adc	r25, r25
    1f76:	88 0f       	add	r24, r24
    1f78:	99 1f       	adc	r25, r25
    1f7a:	82 0f       	add	r24, r18
    1f7c:	93 1f       	adc	r25, r19
    1f7e:	88 5c       	subi	r24, 0xC8	; 200
    1f80:	9e 4f       	sbci	r25, 0xFE	; 254
    1f82:	0e 94 2c 0d 	call	0x1a58	; 0x1a58 <_Z10LCD_StringPc>
		// 	LCD_Home(1);
		// 	LCD_String(menu_List[(menu_Var+1)%3]);
	}

}
    1f86:	df 91       	pop	r29
    1f88:	cf 91       	pop	r28
    1f8a:	1f 91       	pop	r17
    1f8c:	08 95       	ret

00001f8e <_Z8LCD_Menuci>:
char menu_List[3][10] = {"SET ALARM","SET TIME ","SET TONE "};
int menu_Var = 0;
void LCD_Menu(char key,int state){
    1f8e:	0f 93       	push	r16
    1f90:	1f 93       	push	r17
    1f92:	cf 93       	push	r28
    1f94:	df 93       	push	r29
    1f96:	18 2f       	mov	r17, r24
    1f98:	eb 01       	movw	r28, r22
	LCD_Home(0);
    1f9a:	80 e0       	ldi	r24, 0x00	; 0
    1f9c:	90 e0       	ldi	r25, 0x00	; 0
    1f9e:	0e 94 4f 0d 	call	0x1a9e	; 0x1a9e <_Z8LCD_Homei>
	if (key=='8' & state==1){
    1fa2:	81 e0       	ldi	r24, 0x01	; 1
    1fa4:	c1 30       	cpi	r28, 0x01	; 1
    1fa6:	d1 05       	cpc	r29, r1
    1fa8:	09 f0       	breq	.+2      	; 0x1fac <_Z8LCD_Menuci+0x1e>
    1faa:	80 e0       	ldi	r24, 0x00	; 0
    1fac:	91 e0       	ldi	r25, 0x01	; 1
    1fae:	18 33       	cpi	r17, 0x38	; 56
    1fb0:	09 f0       	breq	.+2      	; 0x1fb4 <_Z8LCD_Menuci+0x26>
    1fb2:	90 e0       	ldi	r25, 0x00	; 0
    1fb4:	99 23       	and	r25, r25
    1fb6:	a9 f0       	breq	.+42     	; 0x1fe2 <_Z8LCD_Menuci+0x54>
    1fb8:	88 23       	and	r24, r24
    1fba:	99 f0       	breq	.+38     	; 0x1fe2 <_Z8LCD_Menuci+0x54>
		menu_Var++;
    1fbc:	20 91 f9 01 	lds	r18, 0x01F9	; 0x8001f9 <menu_Var>
    1fc0:	30 91 fa 01 	lds	r19, 0x01FA	; 0x8001fa <menu_Var+0x1>
    1fc4:	2f 5f       	subi	r18, 0xFF	; 255
    1fc6:	3f 4f       	sbci	r19, 0xFF	; 255
    1fc8:	30 93 fa 01 	sts	0x01FA, r19	; 0x8001fa <menu_Var+0x1>
    1fcc:	20 93 f9 01 	sts	0x01F9, r18	; 0x8001f9 <menu_Var>
    1fd0:	2f ef       	ldi	r18, 0xFF	; 255
    1fd2:	30 e7       	ldi	r19, 0x70	; 112
    1fd4:	92 e0       	ldi	r25, 0x02	; 2
    1fd6:	21 50       	subi	r18, 0x01	; 1
    1fd8:	30 40       	sbci	r19, 0x00	; 0
    1fda:	90 40       	sbci	r25, 0x00	; 0
    1fdc:	e1 f7       	brne	.-8      	; 0x1fd6 <_Z8LCD_Menuci+0x48>
    1fde:	00 c0       	rjmp	.+0      	; 0x1fe0 <_Z8LCD_Menuci+0x52>
    1fe0:	00 00       	nop
		//LCD_Clear();
		_delay_ms(800);
	}
	if (key=='2' & state ==1){
    1fe2:	91 e0       	ldi	r25, 0x01	; 1
    1fe4:	12 33       	cpi	r17, 0x32	; 50
    1fe6:	09 f0       	breq	.+2      	; 0x1fea <_Z8LCD_Menuci+0x5c>
    1fe8:	90 e0       	ldi	r25, 0x00	; 0
    1fea:	99 23       	and	r25, r25
    1fec:	a1 f0       	breq	.+40     	; 0x2016 <_Z8LCD_Menuci+0x88>
    1fee:	88 23       	and	r24, r24
    1ff0:	91 f0       	breq	.+36     	; 0x2016 <_Z8LCD_Menuci+0x88>
		menu_Var--;
    1ff2:	80 91 f9 01 	lds	r24, 0x01F9	; 0x8001f9 <menu_Var>
    1ff6:	90 91 fa 01 	lds	r25, 0x01FA	; 0x8001fa <menu_Var+0x1>
    1ffa:	01 97       	sbiw	r24, 0x01	; 1
    1ffc:	90 93 fa 01 	sts	0x01FA, r25	; 0x8001fa <menu_Var+0x1>
    2000:	80 93 f9 01 	sts	0x01F9, r24	; 0x8001f9 <menu_Var>
    2004:	2f ef       	ldi	r18, 0xFF	; 255
    2006:	30 e7       	ldi	r19, 0x70	; 112
    2008:	82 e0       	ldi	r24, 0x02	; 2
    200a:	21 50       	subi	r18, 0x01	; 1
    200c:	30 40       	sbci	r19, 0x00	; 0
    200e:	80 40       	sbci	r24, 0x00	; 0
    2010:	e1 f7       	brne	.-8      	; 0x200a <_Z8LCD_Menuci+0x7c>
    2012:	00 c0       	rjmp	.+0      	; 0x2014 <_Z8LCD_Menuci+0x86>
    2014:	00 00       	nop
		//LCD_Clear();
		_delay_ms(800);
	}
	if (menu_Var>2){
    2016:	80 91 f9 01 	lds	r24, 0x01F9	; 0x8001f9 <menu_Var>
    201a:	90 91 fa 01 	lds	r25, 0x01FA	; 0x8001fa <menu_Var+0x1>
    201e:	03 97       	sbiw	r24, 0x03	; 3
    2020:	24 f0       	brlt	.+8      	; 0x202a <_Z8LCD_Menuci+0x9c>
		menu_Var=0;
    2022:	10 92 fa 01 	sts	0x01FA, r1	; 0x8001fa <menu_Var+0x1>
    2026:	10 92 f9 01 	sts	0x01F9, r1	; 0x8001f9 <menu_Var>
	}
	if (menu_Var<0){
    202a:	80 91 f9 01 	lds	r24, 0x01F9	; 0x8001f9 <menu_Var>
    202e:	90 91 fa 01 	lds	r25, 0x01FA	; 0x8001fa <menu_Var+0x1>
    2032:	99 23       	and	r25, r25
    2034:	34 f4       	brge	.+12     	; 0x2042 <_Z8LCD_Menuci+0xb4>
		menu_Var=2;
    2036:	82 e0       	ldi	r24, 0x02	; 2
    2038:	90 e0       	ldi	r25, 0x00	; 0
    203a:	90 93 fa 01 	sts	0x01FA, r25	; 0x8001fa <menu_Var+0x1>
    203e:	80 93 f9 01 	sts	0x01F9, r24	; 0x8001f9 <menu_Var>
	}
	if (state==1){
    2042:	c1 30       	cpi	r28, 0x01	; 1
    2044:	d1 05       	cpc	r29, r1
    2046:	f9 f4       	brne	.+62     	; 0x2086 <_Z8LCD_Menuci+0xf8>
		LCD_Home(0);LCD_String(">>");
    2048:	80 e0       	ldi	r24, 0x00	; 0
    204a:	90 e0       	ldi	r25, 0x00	; 0
    204c:	0e 94 4f 0d 	call	0x1a9e	; 0x1a9e <_Z8LCD_Homei>
    2050:	8b ec       	ldi	r24, 0xCB	; 203
    2052:	91 e0       	ldi	r25, 0x01	; 1
    2054:	0e 94 2c 0d 	call	0x1a58	; 0x1a58 <_Z10LCD_StringPc>
		LCD_String(menu_List[menu_Var%3]);
    2058:	80 91 f9 01 	lds	r24, 0x01F9	; 0x8001f9 <menu_Var>
    205c:	90 91 fa 01 	lds	r25, 0x01FA	; 0x8001fa <menu_Var+0x1>
    2060:	63 e0       	ldi	r22, 0x03	; 3
    2062:	70 e0       	ldi	r23, 0x00	; 0
    2064:	0e 94 40 14 	call	0x2880	; 0x2880 <__divmodhi4>
    2068:	9c 01       	movw	r18, r24
    206a:	22 0f       	add	r18, r18
    206c:	33 1f       	adc	r19, r19
    206e:	88 0f       	add	r24, r24
    2070:	99 1f       	adc	r25, r25
    2072:	88 0f       	add	r24, r24
    2074:	99 1f       	adc	r25, r25
    2076:	88 0f       	add	r24, r24
    2078:	99 1f       	adc	r25, r25
    207a:	82 0f       	add	r24, r18
    207c:	93 1f       	adc	r25, r19
    207e:	86 5e       	subi	r24, 0xE6	; 230
    2080:	9e 4f       	sbci	r25, 0xFE	; 254
    2082:	0e 94 2c 0d 	call	0x1a58	; 0x1a58 <_Z10LCD_StringPc>
	// 	LCD_Home(1);
	// 	LCD_String(menu_List[(menu_Var+1)%3]);
	}
	if ((state >1) & (menu_Var==0)){
    2086:	01 e0       	ldi	r16, 0x01	; 1
    2088:	c2 30       	cpi	r28, 0x02	; 2
    208a:	d1 05       	cpc	r29, r1
    208c:	0c f4       	brge	.+2      	; 0x2090 <_Z8LCD_Menuci+0x102>
    208e:	00 e0       	ldi	r16, 0x00	; 0
    2090:	81 e0       	ldi	r24, 0x01	; 1
    2092:	20 91 f9 01 	lds	r18, 0x01F9	; 0x8001f9 <menu_Var>
    2096:	30 91 fa 01 	lds	r19, 0x01FA	; 0x8001fa <menu_Var+0x1>
    209a:	23 2b       	or	r18, r19
    209c:	09 f0       	breq	.+2      	; 0x20a0 <_Z8LCD_Menuci+0x112>
    209e:	80 e0       	ldi	r24, 0x00	; 0
    20a0:	88 23       	and	r24, r24
    20a2:	31 f0       	breq	.+12     	; 0x20b0 <_Z8LCD_Menuci+0x122>
    20a4:	00 23       	and	r16, r16
    20a6:	21 f0       	breq	.+8      	; 0x20b0 <_Z8LCD_Menuci+0x122>
		LCD_SetAlarm(key,state);
    20a8:	be 01       	movw	r22, r28
    20aa:	81 2f       	mov	r24, r17
    20ac:	0e 94 c7 0d 	call	0x1b8e	; 0x1b8e <_Z12LCD_SetAlarmci>
	}
	if ((state >1) & (menu_Var==1)){
    20b0:	81 e0       	ldi	r24, 0x01	; 1
    20b2:	20 91 f9 01 	lds	r18, 0x01F9	; 0x8001f9 <menu_Var>
    20b6:	30 91 fa 01 	lds	r19, 0x01FA	; 0x8001fa <menu_Var+0x1>
    20ba:	21 30       	cpi	r18, 0x01	; 1
    20bc:	31 05       	cpc	r19, r1
    20be:	09 f0       	breq	.+2      	; 0x20c2 <_Z8LCD_Menuci+0x134>
    20c0:	80 e0       	ldi	r24, 0x00	; 0
    20c2:	88 23       	and	r24, r24
    20c4:	39 f0       	breq	.+14     	; 0x20d4 <_Z8LCD_Menuci+0x146>
    20c6:	00 23       	and	r16, r16
    20c8:	29 f0       	breq	.+10     	; 0x20d4 <_Z8LCD_Menuci+0x146>
		LCD_SetDate(key,state);
    20ca:	be 01       	movw	r22, r28
    20cc:	81 2f       	mov	r24, r17
    20ce:	90 e0       	ldi	r25, 0x00	; 0
    20d0:	0e 94 97 0e 	call	0x1d2e	; 0x1d2e <_Z11LCD_SetDateii>
	}
	if ((state >1) & (menu_Var==2)){
    20d4:	81 e0       	ldi	r24, 0x01	; 1
    20d6:	20 91 f9 01 	lds	r18, 0x01F9	; 0x8001f9 <menu_Var>
    20da:	30 91 fa 01 	lds	r19, 0x01FA	; 0x8001fa <menu_Var+0x1>
    20de:	22 30       	cpi	r18, 0x02	; 2
    20e0:	31 05       	cpc	r19, r1
    20e2:	09 f0       	breq	.+2      	; 0x20e6 <_Z8LCD_Menuci+0x158>
    20e4:	80 e0       	ldi	r24, 0x00	; 0
    20e6:	88 23       	and	r24, r24
    20e8:	31 f0       	breq	.+12     	; 0x20f6 <_Z8LCD_Menuci+0x168>
    20ea:	00 23       	and	r16, r16
    20ec:	21 f0       	breq	.+8      	; 0x20f6 <_Z8LCD_Menuci+0x168>
		LCD_Tone(key,state);
    20ee:	be 01       	movw	r22, r28
    20f0:	81 2f       	mov	r24, r17
    20f2:	0e 94 49 0f 	call	0x1e92	; 0x1e92 <_Z8LCD_Toneci>
	}
}
    20f6:	df 91       	pop	r29
    20f8:	cf 91       	pop	r28
    20fa:	1f 91       	pop	r17
    20fc:	0f 91       	pop	r16
    20fe:	08 95       	ret

00002100 <_Z14ds1307_dec2bcdh>:
#define F_CPU 1000000UL
#endif


uint8_t ds1307_dec2bcd(uint8_t val) {
	return val + 6 * (val / 10);
    2100:	9d ec       	ldi	r25, 0xCD	; 205
    2102:	89 9f       	mul	r24, r25
    2104:	91 2d       	mov	r25, r1
    2106:	11 24       	eor	r1, r1
    2108:	96 95       	lsr	r25
    210a:	96 95       	lsr	r25
    210c:	96 95       	lsr	r25
    210e:	29 2f       	mov	r18, r25
    2110:	22 0f       	add	r18, r18
    2112:	92 0f       	add	r25, r18
    2114:	29 2f       	mov	r18, r25
    2116:	22 0f       	add	r18, r18
}
    2118:	82 0f       	add	r24, r18
    211a:	08 95       	ret

0000211c <_Z14ds1307_bcd2dech>:
uint8_t ds1307_bcd2dec(uint8_t val) {
	return val - 6 * (val >> 4);
    211c:	28 2f       	mov	r18, r24
    211e:	30 e0       	ldi	r19, 0x00	; 0
    2120:	35 95       	asr	r19
    2122:	27 95       	ror	r18
    2124:	35 95       	asr	r19
    2126:	27 95       	ror	r18
    2128:	35 95       	asr	r19
    212a:	27 95       	ror	r18
    212c:	35 95       	asr	r19
    212e:	27 95       	ror	r18
    2130:	92 2f       	mov	r25, r18
    2132:	99 0f       	add	r25, r25
    2134:	29 0f       	add	r18, r25
    2136:	92 2f       	mov	r25, r18
    2138:	99 0f       	add	r25, r25
}
    213a:	89 1b       	sub	r24, r25
    213c:	08 95       	ret

0000213e <_Z11ds1307_initv>:
void ds1307_init() {
	i2c_init();
    213e:	0e 94 3f 11 	call	0x227e	; 0x227e <_Z8i2c_initv>
	#else
		//round up by default
		__ticks_dc = (uint32_t)(ceil(fabs(__tmp)));
	#endif

	__builtin_avr_delay_cycles(__ticks_dc);
    2142:	83 e0       	ldi	r24, 0x03	; 3
    2144:	8a 95       	dec	r24
    2146:	f1 f7       	brne	.-4      	; 0x2144 <_Z11ds1307_initv+0x6>
    2148:	00 00       	nop
    214a:	08 95       	ret

0000214c <_Z14ds1307_setdatehhhhhhh>:
	_delay_us(10);
}
void ds1307_setdate(uint8_t year, uint8_t month, uint8_t day, uint8_t dayofweek, uint8_t hour, uint8_t minute, uint8_t second) {
    214c:	cf 92       	push	r12
    214e:	ef 92       	push	r14
    2150:	ff 92       	push	r15
    2152:	0f 93       	push	r16
    2154:	1f 93       	push	r17
    2156:	cf 93       	push	r28
    2158:	df 93       	push	r29
    215a:	c8 2f       	mov	r28, r24
    215c:	d6 2f       	mov	r29, r22
    215e:	14 2f       	mov	r17, r20
    2160:	f2 2e       	mov	r15, r18
	

	i2c_start_wait(DS1307_ADDRESS | I2C_WRITE);
    2162:	80 ed       	ldi	r24, 0xD0	; 208
    2164:	0e 94 6b 11 	call	0x22d6	; 0x22d6 <_Z14i2c_start_waith>
	i2c_write(0x00);
    2168:	80 e0       	ldi	r24, 0x00	; 0
    216a:	0e 94 9d 11 	call	0x233a	; 0x233a <_Z9i2c_writeh>
	i2c_write(ds1307_dec2bcd(second));
    216e:	8c 2d       	mov	r24, r12
    2170:	0e 94 80 10 	call	0x2100	; 0x2100 <_Z14ds1307_dec2bcdh>
    2174:	0e 94 9d 11 	call	0x233a	; 0x233a <_Z9i2c_writeh>
	i2c_write(ds1307_dec2bcd(minute));
    2178:	8e 2d       	mov	r24, r14
    217a:	0e 94 80 10 	call	0x2100	; 0x2100 <_Z14ds1307_dec2bcdh>
    217e:	0e 94 9d 11 	call	0x233a	; 0x233a <_Z9i2c_writeh>
	i2c_write(ds1307_dec2bcd(hour));
    2182:	80 2f       	mov	r24, r16
    2184:	0e 94 80 10 	call	0x2100	; 0x2100 <_Z14ds1307_dec2bcdh>
    2188:	0e 94 9d 11 	call	0x233a	; 0x233a <_Z9i2c_writeh>
	i2c_write(ds1307_dec2bcd(dayofweek));
    218c:	8f 2d       	mov	r24, r15
    218e:	0e 94 80 10 	call	0x2100	; 0x2100 <_Z14ds1307_dec2bcdh>
    2192:	0e 94 9d 11 	call	0x233a	; 0x233a <_Z9i2c_writeh>
	i2c_write(ds1307_dec2bcd(day));
    2196:	81 2f       	mov	r24, r17
    2198:	0e 94 80 10 	call	0x2100	; 0x2100 <_Z14ds1307_dec2bcdh>
    219c:	0e 94 9d 11 	call	0x233a	; 0x233a <_Z9i2c_writeh>
	i2c_write(ds1307_dec2bcd(month));
    21a0:	8d 2f       	mov	r24, r29
    21a2:	0e 94 80 10 	call	0x2100	; 0x2100 <_Z14ds1307_dec2bcdh>
    21a6:	0e 94 9d 11 	call	0x233a	; 0x233a <_Z9i2c_writeh>
	i2c_write(ds1307_dec2bcd(year));
    21aa:	8c 2f       	mov	r24, r28
    21ac:	0e 94 80 10 	call	0x2100	; 0x2100 <_Z14ds1307_dec2bcdh>
    21b0:	0e 94 9d 11 	call	0x233a	; 0x233a <_Z9i2c_writeh>
	i2c_write(0x00);
    21b4:	80 e0       	ldi	r24, 0x00	; 0
    21b6:	0e 94 9d 11 	call	0x233a	; 0x233a <_Z9i2c_writeh>
	i2c_stop();
    21ba:	0e 94 95 11 	call	0x232a	; 0x232a <_Z8i2c_stopv>
}
    21be:	df 91       	pop	r29
    21c0:	cf 91       	pop	r28
    21c2:	1f 91       	pop	r17
    21c4:	0f 91       	pop	r16
    21c6:	ff 90       	pop	r15
    21c8:	ef 90       	pop	r14
    21ca:	cf 90       	pop	r12
    21cc:	08 95       	ret

000021ce <_Z14ds1307_getdatePhS_S_S_S_S_S_>:
void ds1307_getdate(uint8_t *year, uint8_t *month, uint8_t *day,uint8_t *dayofweek, uint8_t *hour, uint8_t *minute, uint8_t *second) {
    21ce:	6f 92       	push	r6
    21d0:	7f 92       	push	r7
    21d2:	8f 92       	push	r8
    21d4:	9f 92       	push	r9
    21d6:	af 92       	push	r10
    21d8:	bf 92       	push	r11
    21da:	cf 92       	push	r12
    21dc:	df 92       	push	r13
    21de:	ef 92       	push	r14
    21e0:	ff 92       	push	r15
    21e2:	0f 93       	push	r16
    21e4:	1f 93       	push	r17
    21e6:	cf 93       	push	r28
    21e8:	df 93       	push	r29
    21ea:	ec 01       	movw	r28, r24
    21ec:	3b 01       	movw	r6, r22
    21ee:	5a 01       	movw	r10, r20
    21f0:	49 01       	movw	r8, r18
	i2c_start_wait(DS1307_ADDRESS | I2C_WRITE);
    21f2:	80 ed       	ldi	r24, 0xD0	; 208
    21f4:	0e 94 6b 11 	call	0x22d6	; 0x22d6 <_Z14i2c_start_waith>
	i2c_write(0x00);
    21f8:	80 e0       	ldi	r24, 0x00	; 0
    21fa:	0e 94 9d 11 	call	0x233a	; 0x233a <_Z9i2c_writeh>
	i2c_stop();
    21fe:	0e 94 95 11 	call	0x232a	; 0x232a <_Z8i2c_stopv>

	i2c_rep_start(DS1307_ADDRESS | I2C_READ);
    2202:	81 ed       	ldi	r24, 0xD1	; 209
    2204:	0e 94 92 11 	call	0x2324	; 0x2324 <_Z13i2c_rep_starth>
	*second = ds1307_bcd2dec(i2c_readAck() & 0x7F);
    2208:	0e 94 af 11 	call	0x235e	; 0x235e <_Z11i2c_readAckv>
    220c:	8f 77       	andi	r24, 0x7F	; 127
    220e:	0e 94 8e 10 	call	0x211c	; 0x211c <_Z14ds1307_bcd2dech>
    2212:	f6 01       	movw	r30, r12
    2214:	80 83       	st	Z, r24
	*minute = ds1307_bcd2dec(i2c_readAck());
    2216:	0e 94 af 11 	call	0x235e	; 0x235e <_Z11i2c_readAckv>
    221a:	0e 94 8e 10 	call	0x211c	; 0x211c <_Z14ds1307_bcd2dech>
    221e:	f7 01       	movw	r30, r14
    2220:	80 83       	st	Z, r24
	*hour = ds1307_bcd2dec(i2c_readAck());
    2222:	0e 94 af 11 	call	0x235e	; 0x235e <_Z11i2c_readAckv>
    2226:	0e 94 8e 10 	call	0x211c	; 0x211c <_Z14ds1307_bcd2dech>
    222a:	f8 01       	movw	r30, r16
    222c:	80 83       	st	Z, r24
	*dayofweek = ds1307_bcd2dec(i2c_readAck());
    222e:	0e 94 af 11 	call	0x235e	; 0x235e <_Z11i2c_readAckv>
    2232:	0e 94 8e 10 	call	0x211c	; 0x211c <_Z14ds1307_bcd2dech>
    2236:	f4 01       	movw	r30, r8
    2238:	80 83       	st	Z, r24
	*day = ds1307_bcd2dec(i2c_readAck());
    223a:	0e 94 af 11 	call	0x235e	; 0x235e <_Z11i2c_readAckv>
    223e:	0e 94 8e 10 	call	0x211c	; 0x211c <_Z14ds1307_bcd2dech>
    2242:	f5 01       	movw	r30, r10
    2244:	80 83       	st	Z, r24
	*month = ds1307_bcd2dec(i2c_readAck());
    2246:	0e 94 af 11 	call	0x235e	; 0x235e <_Z11i2c_readAckv>
    224a:	0e 94 8e 10 	call	0x211c	; 0x211c <_Z14ds1307_bcd2dech>
    224e:	f3 01       	movw	r30, r6
    2250:	80 83       	st	Z, r24
	*year = ds1307_bcd2dec(i2c_readNak());
    2252:	0e 94 b9 11 	call	0x2372	; 0x2372 <_Z11i2c_readNakv>
    2256:	0e 94 8e 10 	call	0x211c	; 0x211c <_Z14ds1307_bcd2dech>
    225a:	88 83       	st	Y, r24
	i2c_stop();
    225c:	0e 94 95 11 	call	0x232a	; 0x232a <_Z8i2c_stopv>
}
    2260:	df 91       	pop	r29
    2262:	cf 91       	pop	r28
    2264:	1f 91       	pop	r17
    2266:	0f 91       	pop	r16
    2268:	ff 90       	pop	r15
    226a:	ef 90       	pop	r14
    226c:	df 90       	pop	r13
    226e:	cf 90       	pop	r12
    2270:	bf 90       	pop	r11
    2272:	af 90       	pop	r10
    2274:	9f 90       	pop	r9
    2276:	8f 90       	pop	r8
    2278:	7f 90       	pop	r7
    227a:	6f 90       	pop	r6
    227c:	08 95       	ret

0000227e <_Z8i2c_initv>:
*************************************************************************/
void i2c_init(void)
{
  /* initialize TWI clock: 100 kHz clock, TWPS = 0 => prescaler = 1 */
  
  TWSR = 0;                         /* no prescaler */
    227e:	10 92 b9 00 	sts	0x00B9, r1	; 0x8000b9 <__TEXT_REGION_LENGTH__+0x7f80b9>
  TWBR = ((F_CPU/SCL_CLOCK)-16)/2;  /* must be > 10 for stable operation */
    2282:	8d ef       	ldi	r24, 0xFD	; 253
    2284:	80 93 b8 00 	sts	0x00B8, r24	; 0x8000b8 <__TEXT_REGION_LENGTH__+0x7f80b8>
    2288:	08 95       	ret

0000228a <_Z9i2c_starth>:
unsigned char i2c_start(unsigned char address)
{
    uint8_t   twst;

	// send START condition
	TWCR = (1<<TWINT) | (1<<TWSTA) | (1<<TWEN);
    228a:	94 ea       	ldi	r25, 0xA4	; 164
    228c:	90 93 bc 00 	sts	0x00BC, r25	; 0x8000bc <__TEXT_REGION_LENGTH__+0x7f80bc>

	// wait until transmission completed
	while(!(TWCR & (1<<TWINT)));
    2290:	90 91 bc 00 	lds	r25, 0x00BC	; 0x8000bc <__TEXT_REGION_LENGTH__+0x7f80bc>
    2294:	99 23       	and	r25, r25
    2296:	e4 f7       	brge	.-8      	; 0x2290 <_Z9i2c_starth+0x6>

	// check value of TWI Status Register. Mask prescaler bits.
	twst = TW_STATUS & 0xF8;
    2298:	90 91 b9 00 	lds	r25, 0x00B9	; 0x8000b9 <__TEXT_REGION_LENGTH__+0x7f80b9>
    229c:	98 7f       	andi	r25, 0xF8	; 248
	if ( (twst != TW_START) && (twst != TW_REP_START)) return 1;
    229e:	98 30       	cpi	r25, 0x08	; 8
    22a0:	11 f0       	breq	.+4      	; 0x22a6 <_Z9i2c_starth+0x1c>
    22a2:	90 31       	cpi	r25, 0x10	; 16
    22a4:	91 f4       	brne	.+36     	; 0x22ca <_Z9i2c_starth+0x40>

	// send device address
	TWDR = address;
    22a6:	80 93 bb 00 	sts	0x00BB, r24	; 0x8000bb <__TEXT_REGION_LENGTH__+0x7f80bb>
	TWCR = (1<<TWINT) | (1<<TWEN);
    22aa:	84 e8       	ldi	r24, 0x84	; 132
    22ac:	80 93 bc 00 	sts	0x00BC, r24	; 0x8000bc <__TEXT_REGION_LENGTH__+0x7f80bc>

	// wail until transmission completed and ACK/NACK has been received
	while(!(TWCR & (1<<TWINT)));
    22b0:	80 91 bc 00 	lds	r24, 0x00BC	; 0x8000bc <__TEXT_REGION_LENGTH__+0x7f80bc>
    22b4:	88 23       	and	r24, r24
    22b6:	e4 f7       	brge	.-8      	; 0x22b0 <_Z9i2c_starth+0x26>

	// check value of TWI Status Register. Mask prescaler bits.
	twst = TW_STATUS & 0xF8;
    22b8:	80 91 b9 00 	lds	r24, 0x00B9	; 0x8000b9 <__TEXT_REGION_LENGTH__+0x7f80b9>
    22bc:	88 7f       	andi	r24, 0xF8	; 248
	if ( (twst != TW_MT_SLA_ACK) && (twst != TW_MR_SLA_ACK) ) return 1;
    22be:	88 31       	cpi	r24, 0x18	; 24
    22c0:	31 f0       	breq	.+12     	; 0x22ce <_Z9i2c_starth+0x44>
    22c2:	80 34       	cpi	r24, 0x40	; 64
    22c4:	31 f4       	brne	.+12     	; 0x22d2 <_Z9i2c_starth+0x48>

	return 0;
    22c6:	80 e0       	ldi	r24, 0x00	; 0
    22c8:	08 95       	ret
	// wait until transmission completed
	while(!(TWCR & (1<<TWINT)));

	// check value of TWI Status Register. Mask prescaler bits.
	twst = TW_STATUS & 0xF8;
	if ( (twst != TW_START) && (twst != TW_REP_START)) return 1;
    22ca:	81 e0       	ldi	r24, 0x01	; 1
    22cc:	08 95       	ret

	// check value of TWI Status Register. Mask prescaler bits.
	twst = TW_STATUS & 0xF8;
	if ( (twst != TW_MT_SLA_ACK) && (twst != TW_MR_SLA_ACK) ) return 1;

	return 0;
    22ce:	80 e0       	ldi	r24, 0x00	; 0
    22d0:	08 95       	ret
	// wail until transmission completed and ACK/NACK has been received
	while(!(TWCR & (1<<TWINT)));

	// check value of TWI Status Register. Mask prescaler bits.
	twst = TW_STATUS & 0xF8;
	if ( (twst != TW_MT_SLA_ACK) && (twst != TW_MR_SLA_ACK) ) return 1;
    22d2:	81 e0       	ldi	r24, 0x01	; 1

	return 0;

}/* i2c_start */
    22d4:	08 95       	ret

000022d6 <_Z14i2c_start_waith>:


    while ( 1 )
    {
	    // send START condition
	    TWCR = (1<<TWINT) | (1<<TWSTA) | (1<<TWEN);
    22d6:	94 ea       	ldi	r25, 0xA4	; 164
    22d8:	90 93 bc 00 	sts	0x00BC, r25	; 0x8000bc <__TEXT_REGION_LENGTH__+0x7f80bc>
    
    	// wait until transmission completed
    	while(!(TWCR & (1<<TWINT)));
    22dc:	90 91 bc 00 	lds	r25, 0x00BC	; 0x8000bc <__TEXT_REGION_LENGTH__+0x7f80bc>
    22e0:	99 23       	and	r25, r25
    22e2:	e4 f7       	brge	.-8      	; 0x22dc <_Z14i2c_start_waith+0x6>
    
    	// check value of TWI Status Register. Mask prescaler bits.
    	twst = TW_STATUS & 0xF8;
    22e4:	90 91 b9 00 	lds	r25, 0x00B9	; 0x8000b9 <__TEXT_REGION_LENGTH__+0x7f80b9>
    22e8:	98 7f       	andi	r25, 0xF8	; 248
    	if ( (twst != TW_START) && (twst != TW_REP_START)) continue;
    22ea:	98 30       	cpi	r25, 0x08	; 8
    22ec:	11 f0       	breq	.+4      	; 0x22f2 <_Z14i2c_start_waith+0x1c>
    22ee:	90 31       	cpi	r25, 0x10	; 16
    22f0:	91 f7       	brne	.-28     	; 0x22d6 <_Z14i2c_start_waith>
    
    	// send device address
    	TWDR = address;
    22f2:	80 93 bb 00 	sts	0x00BB, r24	; 0x8000bb <__TEXT_REGION_LENGTH__+0x7f80bb>
    	TWCR = (1<<TWINT) | (1<<TWEN);
    22f6:	94 e8       	ldi	r25, 0x84	; 132
    22f8:	90 93 bc 00 	sts	0x00BC, r25	; 0x8000bc <__TEXT_REGION_LENGTH__+0x7f80bc>
    
    	// wail until transmission completed
    	while(!(TWCR & (1<<TWINT)));
    22fc:	90 91 bc 00 	lds	r25, 0x00BC	; 0x8000bc <__TEXT_REGION_LENGTH__+0x7f80bc>
    2300:	99 23       	and	r25, r25
    2302:	e4 f7       	brge	.-8      	; 0x22fc <_Z14i2c_start_waith+0x26>
    
    	// check value of TWI Status Register. Mask prescaler bits.
    	twst = TW_STATUS & 0xF8;
    2304:	90 91 b9 00 	lds	r25, 0x00B9	; 0x8000b9 <__TEXT_REGION_LENGTH__+0x7f80b9>
    2308:	98 7f       	andi	r25, 0xF8	; 248
    	if ( (twst == TW_MT_SLA_NACK )||(twst ==TW_MR_DATA_NACK) ) 
    230a:	90 32       	cpi	r25, 0x20	; 32
    230c:	11 f0       	breq	.+4      	; 0x2312 <_Z14i2c_start_waith+0x3c>
    230e:	98 35       	cpi	r25, 0x58	; 88
    2310:	41 f4       	brne	.+16     	; 0x2322 <_Z14i2c_start_waith+0x4c>
    	{    	    
    	    /* device busy, send stop condition to terminate write operation */
	        TWCR = (1<<TWINT) | (1<<TWEN) | (1<<TWSTO);
    2312:	94 e9       	ldi	r25, 0x94	; 148
    2314:	90 93 bc 00 	sts	0x00BC, r25	; 0x8000bc <__TEXT_REGION_LENGTH__+0x7f80bc>
	        
	        // wait until stop condition is executed and bus released
	        while(TWCR & (1<<TWSTO));
    2318:	90 91 bc 00 	lds	r25, 0x00BC	; 0x8000bc <__TEXT_REGION_LENGTH__+0x7f80bc>
    231c:	94 fd       	sbrc	r25, 4
    231e:	fc cf       	rjmp	.-8      	; 0x2318 <_Z14i2c_start_waith+0x42>
    2320:	da cf       	rjmp	.-76     	; 0x22d6 <_Z14i2c_start_waith>
    2322:	08 95       	ret

00002324 <_Z13i2c_rep_starth>:
 Return:  0 device accessible
          1 failed to access device
*************************************************************************/
unsigned char i2c_rep_start(unsigned char address)
{
    return i2c_start( address );
    2324:	0e 94 45 11 	call	0x228a	; 0x228a <_Z9i2c_starth>

}/* i2c_rep_start */
    2328:	08 95       	ret

0000232a <_Z8i2c_stopv>:
 Terminates the data transfer and releases the I2C bus
*************************************************************************/
void i2c_stop(void)
{
    /* send stop condition */
	TWCR = (1<<TWINT) | (1<<TWEN) | (1<<TWSTO);
    232a:	84 e9       	ldi	r24, 0x94	; 148
    232c:	80 93 bc 00 	sts	0x00BC, r24	; 0x8000bc <__TEXT_REGION_LENGTH__+0x7f80bc>
	
	// wait until stop condition is executed and bus released
	while(TWCR & (1<<TWSTO));
    2330:	80 91 bc 00 	lds	r24, 0x00BC	; 0x8000bc <__TEXT_REGION_LENGTH__+0x7f80bc>
    2334:	84 fd       	sbrc	r24, 4
    2336:	fc cf       	rjmp	.-8      	; 0x2330 <_Z8i2c_stopv+0x6>

}/* i2c_stop */
    2338:	08 95       	ret

0000233a <_Z9i2c_writeh>:
unsigned char i2c_write( unsigned char data )
{	
    uint8_t   twst;
    
	// send data to the previously addressed device
	TWDR = data;
    233a:	80 93 bb 00 	sts	0x00BB, r24	; 0x8000bb <__TEXT_REGION_LENGTH__+0x7f80bb>
	TWCR = (1<<TWINT) | (1<<TWEN);
    233e:	84 e8       	ldi	r24, 0x84	; 132
    2340:	80 93 bc 00 	sts	0x00BC, r24	; 0x8000bc <__TEXT_REGION_LENGTH__+0x7f80bc>

	// wait until transmission completed
	while(!(TWCR & (1<<TWINT)));
    2344:	80 91 bc 00 	lds	r24, 0x00BC	; 0x8000bc <__TEXT_REGION_LENGTH__+0x7f80bc>
    2348:	88 23       	and	r24, r24
    234a:	e4 f7       	brge	.-8      	; 0x2344 <_Z9i2c_writeh+0xa>

	// check value of TWI Status Register. Mask prescaler bits
	twst = TW_STATUS & 0xF8;
    234c:	80 91 b9 00 	lds	r24, 0x00B9	; 0x8000b9 <__TEXT_REGION_LENGTH__+0x7f80b9>
    2350:	88 7f       	andi	r24, 0xF8	; 248
	if( twst != TW_MT_DATA_ACK) return 1;
    2352:	88 32       	cpi	r24, 0x28	; 40
    2354:	11 f0       	breq	.+4      	; 0x235a <_Z9i2c_writeh+0x20>
    2356:	81 e0       	ldi	r24, 0x01	; 1
    2358:	08 95       	ret
	return 0;
    235a:	80 e0       	ldi	r24, 0x00	; 0

}/* i2c_write */
    235c:	08 95       	ret

0000235e <_Z11i2c_readAckv>:
 
 Return:  byte read from I2C device
*************************************************************************/
unsigned char i2c_readAck(void)
{
	TWCR = (1<<TWINT) | (1<<TWEN) | (1<<TWEA);
    235e:	84 ec       	ldi	r24, 0xC4	; 196
    2360:	80 93 bc 00 	sts	0x00BC, r24	; 0x8000bc <__TEXT_REGION_LENGTH__+0x7f80bc>
	while(!(TWCR & (1<<TWINT)));    
    2364:	80 91 bc 00 	lds	r24, 0x00BC	; 0x8000bc <__TEXT_REGION_LENGTH__+0x7f80bc>
    2368:	88 23       	and	r24, r24
    236a:	e4 f7       	brge	.-8      	; 0x2364 <_Z11i2c_readAckv+0x6>

    return TWDR;
    236c:	80 91 bb 00 	lds	r24, 0x00BB	; 0x8000bb <__TEXT_REGION_LENGTH__+0x7f80bb>

}/* i2c_readAck */
    2370:	08 95       	ret

00002372 <_Z11i2c_readNakv>:
 
 Return:  byte read from I2C device
*************************************************************************/
unsigned char i2c_readNak(void)
{
	TWCR = (1<<TWINT) | (1<<TWEN);
    2372:	84 e8       	ldi	r24, 0x84	; 132
    2374:	80 93 bc 00 	sts	0x00BC, r24	; 0x8000bc <__TEXT_REGION_LENGTH__+0x7f80bc>
	while(!(TWCR & (1<<TWINT)));
    2378:	80 91 bc 00 	lds	r24, 0x00BC	; 0x8000bc <__TEXT_REGION_LENGTH__+0x7f80bc>
    237c:	88 23       	and	r24, r24
    237e:	e4 f7       	brge	.-8      	; 0x2378 <_Z11i2c_readNakv+0x6>
	
    return TWDR;
    2380:	80 91 bb 00 	lds	r24, 0x00BB	; 0x8000bb <__TEXT_REGION_LENGTH__+0x7f80bb>

}/* i2c_readNak */
    2384:	08 95       	ret

00002386 <_Z8btnPressv>:
{
} //~Keypad


char btnPress(){
	DDRC = 0x0F;
    2386:	8f e0       	ldi	r24, 0x0F	; 15
    2388:	87 b9       	out	0x07, r24	; 7
	for (int i=0;i<4;i++){
    238a:	60 e0       	ldi	r22, 0x00	; 0
    238c:	70 e0       	ldi	r23, 0x00	; 0
    238e:	64 30       	cpi	r22, 0x04	; 4
    2390:	71 05       	cpc	r23, r1
    2392:	94 f5       	brge	.+100    	; 0x23f8 <_Z8btnPressv+0x72>
		PORTC = 1<<row[i];
    2394:	81 e0       	ldi	r24, 0x01	; 1
    2396:	90 e0       	ldi	r25, 0x00	; 0
    2398:	fb 01       	movw	r30, r22
    239a:	e1 59       	subi	r30, 0x91	; 145
    239c:	fe 4f       	sbci	r31, 0xFE	; 254
    239e:	00 80       	ld	r0, Z
    23a0:	02 c0       	rjmp	.+4      	; 0x23a6 <_Z8btnPressv+0x20>
    23a2:	88 0f       	add	r24, r24
    23a4:	99 1f       	adc	r25, r25
    23a6:	0a 94       	dec	r0
    23a8:	e2 f7       	brpl	.-8      	; 0x23a2 <_Z8btnPressv+0x1c>
    23aa:	88 b9       	out	0x08, r24	; 8
		for (int j = 0;j<3;j++){
    23ac:	80 e0       	ldi	r24, 0x00	; 0
    23ae:	90 e0       	ldi	r25, 0x00	; 0
    23b0:	83 30       	cpi	r24, 0x03	; 3
    23b2:	91 05       	cpc	r25, r1
    23b4:	f4 f4       	brge	.+60     	; 0x23f2 <_Z8btnPressv+0x6c>
			if (PIND==(1<<colomn[j])){
    23b6:	49 b1       	in	r20, 0x09	; 9
    23b8:	50 e0       	ldi	r21, 0x00	; 0
    23ba:	21 e0       	ldi	r18, 0x01	; 1
    23bc:	30 e0       	ldi	r19, 0x00	; 0
    23be:	fc 01       	movw	r30, r24
    23c0:	e4 59       	subi	r30, 0x94	; 148
    23c2:	fe 4f       	sbci	r31, 0xFE	; 254
    23c4:	00 80       	ld	r0, Z
    23c6:	02 c0       	rjmp	.+4      	; 0x23cc <_Z8btnPressv+0x46>
    23c8:	22 0f       	add	r18, r18
    23ca:	33 1f       	adc	r19, r19
    23cc:	0a 94       	dec	r0
    23ce:	e2 f7       	brpl	.-8      	; 0x23c8 <_Z8btnPressv+0x42>
    23d0:	42 17       	cp	r20, r18
    23d2:	53 07       	cpc	r21, r19
    23d4:	61 f4       	brne	.+24     	; 0x23ee <_Z8btnPressv+0x68>
				//_delay_ms(100);
				return keys[i][j];
    23d6:	9b 01       	movw	r18, r22
    23d8:	22 0f       	add	r18, r18
    23da:	33 1f       	adc	r19, r19
    23dc:	62 0f       	add	r22, r18
    23de:	73 1f       	adc	r23, r19
    23e0:	6d 58       	subi	r22, 0x8D	; 141
    23e2:	7e 4f       	sbci	r23, 0xFE	; 254
    23e4:	fb 01       	movw	r30, r22
    23e6:	e8 0f       	add	r30, r24
    23e8:	f9 1f       	adc	r31, r25
    23ea:	80 81       	ld	r24, Z
    23ec:	08 95       	ret

char btnPress(){
	DDRC = 0x0F;
	for (int i=0;i<4;i++){
		PORTC = 1<<row[i];
		for (int j = 0;j<3;j++){
    23ee:	01 96       	adiw	r24, 0x01	; 1
    23f0:	df cf       	rjmp	.-66     	; 0x23b0 <_Z8btnPressv+0x2a>
} //~Keypad


char btnPress(){
	DDRC = 0x0F;
	for (int i=0;i<4;i++){
    23f2:	6f 5f       	subi	r22, 0xFF	; 255
    23f4:	7f 4f       	sbci	r23, 0xFF	; 255
    23f6:	cb cf       	rjmp	.-106    	; 0x238e <_Z8btnPressv+0x8>
				//_delay_ms(100);
				return keys[i][j];
			}
		}
	}
	return '&';
    23f8:	86 e2       	ldi	r24, 0x26	; 38
    23fa:	08 95       	ret

000023fc <main>:

#ifndef F_CPU
#define F_CPU 1000000UL
#endif
int main()
{
    23fc:	cf 93       	push	r28
    23fe:	df 93       	push	r29
    2400:	cd b7       	in	r28, 0x3d	; 61
    2402:	de b7       	in	r29, 0x3e	; 62
    2404:	2c 97       	sbiw	r28, 0x0c	; 12
    2406:	0f b6       	in	r0, 0x3f	; 63
    2408:	f8 94       	cli
    240a:	de bf       	out	0x3e, r29	; 62
    240c:	0f be       	out	0x3f, r0	; 63
    240e:	cd bf       	out	0x3d, r28	; 61
	init_buzzer();		// Initialize pins used for buzzer and Interrupt button
    2410:	0e 94 71 0a 	call	0x14e2	; 0x14e2 <_Z11init_buzzerv>
	LCD_Init();			/* Initialization of LCD*/
    2414:	0e 94 0e 0d 	call	0x1a1c	; 0x1a1c <_Z8LCD_Initv>
	LCD_String("   WELCOME!!!");
    2418:	8e ec       	ldi	r24, 0xCE	; 206
    241a:	91 e0       	ldi	r25, 0x01	; 1
    241c:	0e 94 2c 0d 	call	0x1a58	; 0x1a58 <_Z10LCD_StringPc>
	#else
		//round up by default
		__ticks_dc = (uint32_t)(ceil(fabs(__tmp)));
	#endif

	__builtin_avr_delay_cycles(__ticks_dc);
    2420:	2f e3       	ldi	r18, 0x3F	; 63
    2422:	8d e0       	ldi	r24, 0x0D	; 13
    2424:	93 e0       	ldi	r25, 0x03	; 3
    2426:	21 50       	subi	r18, 0x01	; 1
    2428:	80 40       	sbci	r24, 0x00	; 0
    242a:	90 40       	sbci	r25, 0x00	; 0
    242c:	e1 f7       	brne	.-8      	; 0x2426 <main+0x2a>
    242e:	00 c0       	rjmp	.+0      	; 0x2430 <main+0x34>
    2430:	00 00       	nop
	_delay_ms(1000);
	LCD_Clear();
    2432:	0e 94 42 0d 	call	0x1a84	; 0x1a84 <_Z9LCD_Clearv>
	ds1307_init();
    2436:	0e 94 9f 10 	call	0x213e	; 0x213e <_Z11ds1307_initv>
	int clocktime[6] = {21,05,4,12,8,35};
    243a:	8c e0       	ldi	r24, 0x0C	; 12
    243c:	ef e7       	ldi	r30, 0x7F	; 127
    243e:	f1 e0       	ldi	r31, 0x01	; 1
    2440:	de 01       	movw	r26, r28
    2442:	11 96       	adiw	r26, 0x01	; 1
    2444:	01 90       	ld	r0, Z+
    2446:	0d 92       	st	X+, r0
    2448:	8a 95       	dec	r24
    244a:	e1 f7       	brne	.-8      	; 0x2444 <main+0x48>
	setClockTime(clocktime);
    244c:	ce 01       	movw	r24, r28
    244e:	01 96       	adiw	r24, 0x01	; 1
    2450:	0e 94 2b 09 	call	0x1256	; 0x1256 <_Z12setClockTimePi>
	//setAlarm(1209);
	int menu = 0;
    2454:	00 e0       	ldi	r16, 0x00	; 0
    2456:	10 e0       	ldi	r17, 0x00	; 0
	char key;
	while(1){
		checkAlarm();
    2458:	0e 94 75 08 	call	0x10ea	; 0x10ea <_Z10checkAlarmv>
		key = btnPress();
    245c:	0e 94 c3 11 	call	0x2386	; 0x2386 <_Z8btnPressv>
    2460:	f8 2e       	mov	r15, r24
		if (menu==0){
    2462:	01 15       	cp	r16, r1
    2464:	11 05       	cpc	r17, r1
    2466:	11 f4       	brne	.+4      	; 0x246c <main+0x70>
			displayTime();
    2468:	0e 94 b4 09 	call	0x1368	; 0x1368 <_Z11displayTimev>
		}
		if (key=='*'){
    246c:	2a e2       	ldi	r18, 0x2A	; 42
    246e:	f2 12       	cpse	r15, r18
    2470:	0d c0       	rjmp	.+26     	; 0x248c <main+0x90>
    2472:	8f e7       	ldi	r24, 0x7F	; 127
    2474:	98 e3       	ldi	r25, 0x38	; 56
    2476:	21 e0       	ldi	r18, 0x01	; 1
    2478:	81 50       	subi	r24, 0x01	; 1
    247a:	90 40       	sbci	r25, 0x00	; 0
    247c:	20 40       	sbci	r18, 0x00	; 0
    247e:	e1 f7       	brne	.-8      	; 0x2478 <main+0x7c>
    2480:	00 c0       	rjmp	.+0      	; 0x2482 <main+0x86>
    2482:	00 00       	nop
			_delay_ms(400);
			menu ++;
    2484:	0f 5f       	subi	r16, 0xFF	; 255
    2486:	1f 4f       	sbci	r17, 0xFF	; 255
			LCD_Clear();
    2488:	0e 94 42 0d 	call	0x1a84	; 0x1a84 <_Z9LCD_Clearv>
		}
		if (menu>0){
    248c:	10 16       	cp	r1, r16
    248e:	11 06       	cpc	r1, r17
    2490:	24 f4       	brge	.+8      	; 0x249a <main+0x9e>
			LCD_Menu(key,menu);
    2492:	b8 01       	movw	r22, r16
    2494:	8f 2d       	mov	r24, r15
    2496:	0e 94 c7 0f 	call	0x1f8e	; 0x1f8e <_Z8LCD_Menuci>
		}
		if (menu==3 | menu==-1){
    249a:	81 e0       	ldi	r24, 0x01	; 1
    249c:	03 30       	cpi	r16, 0x03	; 3
    249e:	11 05       	cpc	r17, r1
    24a0:	09 f0       	breq	.+2      	; 0x24a4 <main+0xa8>
    24a2:	80 e0       	ldi	r24, 0x00	; 0
    24a4:	81 11       	cpse	r24, r1
    24a6:	08 c0       	rjmp	.+16     	; 0x24b8 <main+0xbc>
    24a8:	81 e0       	ldi	r24, 0x01	; 1
    24aa:	0f 3f       	cpi	r16, 0xFF	; 255
    24ac:	9f ef       	ldi	r25, 0xFF	; 255
    24ae:	19 07       	cpc	r17, r25
    24b0:	09 f0       	breq	.+2      	; 0x24b4 <main+0xb8>
    24b2:	80 e0       	ldi	r24, 0x00	; 0
    24b4:	88 23       	and	r24, r24
    24b6:	11 f0       	breq	.+4      	; 0x24bc <main+0xc0>
			menu = 0;
    24b8:	00 e0       	ldi	r16, 0x00	; 0
    24ba:	10 e0       	ldi	r17, 0x00	; 0
		}
		if (key=='#'){
    24bc:	23 e2       	ldi	r18, 0x23	; 35
    24be:	f2 12       	cpse	r15, r18
    24c0:	cb cf       	rjmp	.-106    	; 0x2458 <main+0x5c>
    24c2:	8f e7       	ldi	r24, 0x7F	; 127
    24c4:	98 e3       	ldi	r25, 0x38	; 56
    24c6:	21 e0       	ldi	r18, 0x01	; 1
    24c8:	81 50       	subi	r24, 0x01	; 1
    24ca:	90 40       	sbci	r25, 0x00	; 0
    24cc:	20 40       	sbci	r18, 0x00	; 0
    24ce:	e1 f7       	brne	.-8      	; 0x24c8 <main+0xcc>
    24d0:	00 c0       	rjmp	.+0      	; 0x24d2 <main+0xd6>
    24d2:	00 00       	nop
			_delay_ms(400);
			menu --;
    24d4:	01 50       	subi	r16, 0x01	; 1
    24d6:	11 09       	sbc	r17, r1
			LCD_Clear();
    24d8:	0e 94 42 0d 	call	0x1a84	; 0x1a84 <_Z9LCD_Clearv>
    24dc:	bd cf       	rjmp	.-134    	; 0x2458 <main+0x5c>

000024de <__cmpsf2>:
    24de:	0e 94 59 13 	call	0x26b2	; 0x26b2 <__fp_cmp>
    24e2:	08 f4       	brcc	.+2      	; 0x24e6 <__cmpsf2+0x8>
    24e4:	81 e0       	ldi	r24, 0x01	; 1
    24e6:	08 95       	ret

000024e8 <__divsf3>:
    24e8:	0e 94 88 12 	call	0x2510	; 0x2510 <__divsf3x>
    24ec:	0c 94 94 13 	jmp	0x2728	; 0x2728 <__fp_round>
    24f0:	0e 94 8d 13 	call	0x271a	; 0x271a <__fp_pscB>
    24f4:	58 f0       	brcs	.+22     	; 0x250c <__divsf3+0x24>
    24f6:	0e 94 86 13 	call	0x270c	; 0x270c <__fp_pscA>
    24fa:	40 f0       	brcs	.+16     	; 0x250c <__divsf3+0x24>
    24fc:	29 f4       	brne	.+10     	; 0x2508 <__divsf3+0x20>
    24fe:	5f 3f       	cpi	r21, 0xFF	; 255
    2500:	29 f0       	breq	.+10     	; 0x250c <__divsf3+0x24>
    2502:	0c 94 7d 13 	jmp	0x26fa	; 0x26fa <__fp_inf>
    2506:	51 11       	cpse	r21, r1
    2508:	0c 94 c8 13 	jmp	0x2790	; 0x2790 <__fp_szero>
    250c:	0c 94 83 13 	jmp	0x2706	; 0x2706 <__fp_nan>

00002510 <__divsf3x>:
    2510:	0e 94 a5 13 	call	0x274a	; 0x274a <__fp_split3>
    2514:	68 f3       	brcs	.-38     	; 0x24f0 <__divsf3+0x8>

00002516 <__divsf3_pse>:
    2516:	99 23       	and	r25, r25
    2518:	b1 f3       	breq	.-20     	; 0x2506 <__divsf3+0x1e>
    251a:	55 23       	and	r21, r21
    251c:	91 f3       	breq	.-28     	; 0x2502 <__divsf3+0x1a>
    251e:	95 1b       	sub	r25, r21
    2520:	55 0b       	sbc	r21, r21
    2522:	bb 27       	eor	r27, r27
    2524:	aa 27       	eor	r26, r26
    2526:	62 17       	cp	r22, r18
    2528:	73 07       	cpc	r23, r19
    252a:	84 07       	cpc	r24, r20
    252c:	38 f0       	brcs	.+14     	; 0x253c <__divsf3_pse+0x26>
    252e:	9f 5f       	subi	r25, 0xFF	; 255
    2530:	5f 4f       	sbci	r21, 0xFF	; 255
    2532:	22 0f       	add	r18, r18
    2534:	33 1f       	adc	r19, r19
    2536:	44 1f       	adc	r20, r20
    2538:	aa 1f       	adc	r26, r26
    253a:	a9 f3       	breq	.-22     	; 0x2526 <__divsf3_pse+0x10>
    253c:	35 d0       	rcall	.+106    	; 0x25a8 <__divsf3_pse+0x92>
    253e:	0e 2e       	mov	r0, r30
    2540:	3a f0       	brmi	.+14     	; 0x2550 <__divsf3_pse+0x3a>
    2542:	e0 e8       	ldi	r30, 0x80	; 128
    2544:	32 d0       	rcall	.+100    	; 0x25aa <__divsf3_pse+0x94>
    2546:	91 50       	subi	r25, 0x01	; 1
    2548:	50 40       	sbci	r21, 0x00	; 0
    254a:	e6 95       	lsr	r30
    254c:	00 1c       	adc	r0, r0
    254e:	ca f7       	brpl	.-14     	; 0x2542 <__divsf3_pse+0x2c>
    2550:	2b d0       	rcall	.+86     	; 0x25a8 <__divsf3_pse+0x92>
    2552:	fe 2f       	mov	r31, r30
    2554:	29 d0       	rcall	.+82     	; 0x25a8 <__divsf3_pse+0x92>
    2556:	66 0f       	add	r22, r22
    2558:	77 1f       	adc	r23, r23
    255a:	88 1f       	adc	r24, r24
    255c:	bb 1f       	adc	r27, r27
    255e:	26 17       	cp	r18, r22
    2560:	37 07       	cpc	r19, r23
    2562:	48 07       	cpc	r20, r24
    2564:	ab 07       	cpc	r26, r27
    2566:	b0 e8       	ldi	r27, 0x80	; 128
    2568:	09 f0       	breq	.+2      	; 0x256c <__divsf3_pse+0x56>
    256a:	bb 0b       	sbc	r27, r27
    256c:	80 2d       	mov	r24, r0
    256e:	bf 01       	movw	r22, r30
    2570:	ff 27       	eor	r31, r31
    2572:	93 58       	subi	r25, 0x83	; 131
    2574:	5f 4f       	sbci	r21, 0xFF	; 255
    2576:	3a f0       	brmi	.+14     	; 0x2586 <__divsf3_pse+0x70>
    2578:	9e 3f       	cpi	r25, 0xFE	; 254
    257a:	51 05       	cpc	r21, r1
    257c:	78 f0       	brcs	.+30     	; 0x259c <__divsf3_pse+0x86>
    257e:	0c 94 7d 13 	jmp	0x26fa	; 0x26fa <__fp_inf>
    2582:	0c 94 c8 13 	jmp	0x2790	; 0x2790 <__fp_szero>
    2586:	5f 3f       	cpi	r21, 0xFF	; 255
    2588:	e4 f3       	brlt	.-8      	; 0x2582 <__divsf3_pse+0x6c>
    258a:	98 3e       	cpi	r25, 0xE8	; 232
    258c:	d4 f3       	brlt	.-12     	; 0x2582 <__divsf3_pse+0x6c>
    258e:	86 95       	lsr	r24
    2590:	77 95       	ror	r23
    2592:	67 95       	ror	r22
    2594:	b7 95       	ror	r27
    2596:	f7 95       	ror	r31
    2598:	9f 5f       	subi	r25, 0xFF	; 255
    259a:	c9 f7       	brne	.-14     	; 0x258e <__divsf3_pse+0x78>
    259c:	88 0f       	add	r24, r24
    259e:	91 1d       	adc	r25, r1
    25a0:	96 95       	lsr	r25
    25a2:	87 95       	ror	r24
    25a4:	97 f9       	bld	r25, 7
    25a6:	08 95       	ret
    25a8:	e1 e0       	ldi	r30, 0x01	; 1
    25aa:	66 0f       	add	r22, r22
    25ac:	77 1f       	adc	r23, r23
    25ae:	88 1f       	adc	r24, r24
    25b0:	bb 1f       	adc	r27, r27
    25b2:	62 17       	cp	r22, r18
    25b4:	73 07       	cpc	r23, r19
    25b6:	84 07       	cpc	r24, r20
    25b8:	ba 07       	cpc	r27, r26
    25ba:	20 f0       	brcs	.+8      	; 0x25c4 <__divsf3_pse+0xae>
    25bc:	62 1b       	sub	r22, r18
    25be:	73 0b       	sbc	r23, r19
    25c0:	84 0b       	sbc	r24, r20
    25c2:	ba 0b       	sbc	r27, r26
    25c4:	ee 1f       	adc	r30, r30
    25c6:	88 f7       	brcc	.-30     	; 0x25aa <__divsf3_pse+0x94>
    25c8:	e0 95       	com	r30
    25ca:	08 95       	ret

000025cc <__fixsfsi>:
    25cc:	0e 94 ed 12 	call	0x25da	; 0x25da <__fixunssfsi>
    25d0:	68 94       	set
    25d2:	b1 11       	cpse	r27, r1
    25d4:	0c 94 c8 13 	jmp	0x2790	; 0x2790 <__fp_szero>
    25d8:	08 95       	ret

000025da <__fixunssfsi>:
    25da:	0e 94 ad 13 	call	0x275a	; 0x275a <__fp_splitA>
    25de:	88 f0       	brcs	.+34     	; 0x2602 <__fixunssfsi+0x28>
    25e0:	9f 57       	subi	r25, 0x7F	; 127
    25e2:	98 f0       	brcs	.+38     	; 0x260a <__fixunssfsi+0x30>
    25e4:	b9 2f       	mov	r27, r25
    25e6:	99 27       	eor	r25, r25
    25e8:	b7 51       	subi	r27, 0x17	; 23
    25ea:	b0 f0       	brcs	.+44     	; 0x2618 <__fixunssfsi+0x3e>
    25ec:	e1 f0       	breq	.+56     	; 0x2626 <__fixunssfsi+0x4c>
    25ee:	66 0f       	add	r22, r22
    25f0:	77 1f       	adc	r23, r23
    25f2:	88 1f       	adc	r24, r24
    25f4:	99 1f       	adc	r25, r25
    25f6:	1a f0       	brmi	.+6      	; 0x25fe <__fixunssfsi+0x24>
    25f8:	ba 95       	dec	r27
    25fa:	c9 f7       	brne	.-14     	; 0x25ee <__fixunssfsi+0x14>
    25fc:	14 c0       	rjmp	.+40     	; 0x2626 <__fixunssfsi+0x4c>
    25fe:	b1 30       	cpi	r27, 0x01	; 1
    2600:	91 f0       	breq	.+36     	; 0x2626 <__fixunssfsi+0x4c>
    2602:	0e 94 c7 13 	call	0x278e	; 0x278e <__fp_zero>
    2606:	b1 e0       	ldi	r27, 0x01	; 1
    2608:	08 95       	ret
    260a:	0c 94 c7 13 	jmp	0x278e	; 0x278e <__fp_zero>
    260e:	67 2f       	mov	r22, r23
    2610:	78 2f       	mov	r23, r24
    2612:	88 27       	eor	r24, r24
    2614:	b8 5f       	subi	r27, 0xF8	; 248
    2616:	39 f0       	breq	.+14     	; 0x2626 <__fixunssfsi+0x4c>
    2618:	b9 3f       	cpi	r27, 0xF9	; 249
    261a:	cc f3       	brlt	.-14     	; 0x260e <__fixunssfsi+0x34>
    261c:	86 95       	lsr	r24
    261e:	77 95       	ror	r23
    2620:	67 95       	ror	r22
    2622:	b3 95       	inc	r27
    2624:	d9 f7       	brne	.-10     	; 0x261c <__fixunssfsi+0x42>
    2626:	3e f4       	brtc	.+14     	; 0x2636 <__fixunssfsi+0x5c>
    2628:	90 95       	com	r25
    262a:	80 95       	com	r24
    262c:	70 95       	com	r23
    262e:	61 95       	neg	r22
    2630:	7f 4f       	sbci	r23, 0xFF	; 255
    2632:	8f 4f       	sbci	r24, 0xFF	; 255
    2634:	9f 4f       	sbci	r25, 0xFF	; 255
    2636:	08 95       	ret

00002638 <__floatunsisf>:
    2638:	e8 94       	clt
    263a:	09 c0       	rjmp	.+18     	; 0x264e <__floatsisf+0x12>

0000263c <__floatsisf>:
    263c:	97 fb       	bst	r25, 7
    263e:	3e f4       	brtc	.+14     	; 0x264e <__floatsisf+0x12>
    2640:	90 95       	com	r25
    2642:	80 95       	com	r24
    2644:	70 95       	com	r23
    2646:	61 95       	neg	r22
    2648:	7f 4f       	sbci	r23, 0xFF	; 255
    264a:	8f 4f       	sbci	r24, 0xFF	; 255
    264c:	9f 4f       	sbci	r25, 0xFF	; 255
    264e:	99 23       	and	r25, r25
    2650:	a9 f0       	breq	.+42     	; 0x267c <__floatsisf+0x40>
    2652:	f9 2f       	mov	r31, r25
    2654:	96 e9       	ldi	r25, 0x96	; 150
    2656:	bb 27       	eor	r27, r27
    2658:	93 95       	inc	r25
    265a:	f6 95       	lsr	r31
    265c:	87 95       	ror	r24
    265e:	77 95       	ror	r23
    2660:	67 95       	ror	r22
    2662:	b7 95       	ror	r27
    2664:	f1 11       	cpse	r31, r1
    2666:	f8 cf       	rjmp	.-16     	; 0x2658 <__floatsisf+0x1c>
    2668:	fa f4       	brpl	.+62     	; 0x26a8 <__floatsisf+0x6c>
    266a:	bb 0f       	add	r27, r27
    266c:	11 f4       	brne	.+4      	; 0x2672 <__floatsisf+0x36>
    266e:	60 ff       	sbrs	r22, 0
    2670:	1b c0       	rjmp	.+54     	; 0x26a8 <__floatsisf+0x6c>
    2672:	6f 5f       	subi	r22, 0xFF	; 255
    2674:	7f 4f       	sbci	r23, 0xFF	; 255
    2676:	8f 4f       	sbci	r24, 0xFF	; 255
    2678:	9f 4f       	sbci	r25, 0xFF	; 255
    267a:	16 c0       	rjmp	.+44     	; 0x26a8 <__floatsisf+0x6c>
    267c:	88 23       	and	r24, r24
    267e:	11 f0       	breq	.+4      	; 0x2684 <__floatsisf+0x48>
    2680:	96 e9       	ldi	r25, 0x96	; 150
    2682:	11 c0       	rjmp	.+34     	; 0x26a6 <__floatsisf+0x6a>
    2684:	77 23       	and	r23, r23
    2686:	21 f0       	breq	.+8      	; 0x2690 <__floatsisf+0x54>
    2688:	9e e8       	ldi	r25, 0x8E	; 142
    268a:	87 2f       	mov	r24, r23
    268c:	76 2f       	mov	r23, r22
    268e:	05 c0       	rjmp	.+10     	; 0x269a <__floatsisf+0x5e>
    2690:	66 23       	and	r22, r22
    2692:	71 f0       	breq	.+28     	; 0x26b0 <__floatsisf+0x74>
    2694:	96 e8       	ldi	r25, 0x86	; 134
    2696:	86 2f       	mov	r24, r22
    2698:	70 e0       	ldi	r23, 0x00	; 0
    269a:	60 e0       	ldi	r22, 0x00	; 0
    269c:	2a f0       	brmi	.+10     	; 0x26a8 <__floatsisf+0x6c>
    269e:	9a 95       	dec	r25
    26a0:	66 0f       	add	r22, r22
    26a2:	77 1f       	adc	r23, r23
    26a4:	88 1f       	adc	r24, r24
    26a6:	da f7       	brpl	.-10     	; 0x269e <__floatsisf+0x62>
    26a8:	88 0f       	add	r24, r24
    26aa:	96 95       	lsr	r25
    26ac:	87 95       	ror	r24
    26ae:	97 f9       	bld	r25, 7
    26b0:	08 95       	ret

000026b2 <__fp_cmp>:
    26b2:	99 0f       	add	r25, r25
    26b4:	00 08       	sbc	r0, r0
    26b6:	55 0f       	add	r21, r21
    26b8:	aa 0b       	sbc	r26, r26
    26ba:	e0 e8       	ldi	r30, 0x80	; 128
    26bc:	fe ef       	ldi	r31, 0xFE	; 254
    26be:	16 16       	cp	r1, r22
    26c0:	17 06       	cpc	r1, r23
    26c2:	e8 07       	cpc	r30, r24
    26c4:	f9 07       	cpc	r31, r25
    26c6:	c0 f0       	brcs	.+48     	; 0x26f8 <__fp_cmp+0x46>
    26c8:	12 16       	cp	r1, r18
    26ca:	13 06       	cpc	r1, r19
    26cc:	e4 07       	cpc	r30, r20
    26ce:	f5 07       	cpc	r31, r21
    26d0:	98 f0       	brcs	.+38     	; 0x26f8 <__fp_cmp+0x46>
    26d2:	62 1b       	sub	r22, r18
    26d4:	73 0b       	sbc	r23, r19
    26d6:	84 0b       	sbc	r24, r20
    26d8:	95 0b       	sbc	r25, r21
    26da:	39 f4       	brne	.+14     	; 0x26ea <__fp_cmp+0x38>
    26dc:	0a 26       	eor	r0, r26
    26de:	61 f0       	breq	.+24     	; 0x26f8 <__fp_cmp+0x46>
    26e0:	23 2b       	or	r18, r19
    26e2:	24 2b       	or	r18, r20
    26e4:	25 2b       	or	r18, r21
    26e6:	21 f4       	brne	.+8      	; 0x26f0 <__fp_cmp+0x3e>
    26e8:	08 95       	ret
    26ea:	0a 26       	eor	r0, r26
    26ec:	09 f4       	brne	.+2      	; 0x26f0 <__fp_cmp+0x3e>
    26ee:	a1 40       	sbci	r26, 0x01	; 1
    26f0:	a6 95       	lsr	r26
    26f2:	8f ef       	ldi	r24, 0xFF	; 255
    26f4:	81 1d       	adc	r24, r1
    26f6:	81 1d       	adc	r24, r1
    26f8:	08 95       	ret

000026fa <__fp_inf>:
    26fa:	97 f9       	bld	r25, 7
    26fc:	9f 67       	ori	r25, 0x7F	; 127
    26fe:	80 e8       	ldi	r24, 0x80	; 128
    2700:	70 e0       	ldi	r23, 0x00	; 0
    2702:	60 e0       	ldi	r22, 0x00	; 0
    2704:	08 95       	ret

00002706 <__fp_nan>:
    2706:	9f ef       	ldi	r25, 0xFF	; 255
    2708:	80 ec       	ldi	r24, 0xC0	; 192
    270a:	08 95       	ret

0000270c <__fp_pscA>:
    270c:	00 24       	eor	r0, r0
    270e:	0a 94       	dec	r0
    2710:	16 16       	cp	r1, r22
    2712:	17 06       	cpc	r1, r23
    2714:	18 06       	cpc	r1, r24
    2716:	09 06       	cpc	r0, r25
    2718:	08 95       	ret

0000271a <__fp_pscB>:
    271a:	00 24       	eor	r0, r0
    271c:	0a 94       	dec	r0
    271e:	12 16       	cp	r1, r18
    2720:	13 06       	cpc	r1, r19
    2722:	14 06       	cpc	r1, r20
    2724:	05 06       	cpc	r0, r21
    2726:	08 95       	ret

00002728 <__fp_round>:
    2728:	09 2e       	mov	r0, r25
    272a:	03 94       	inc	r0
    272c:	00 0c       	add	r0, r0
    272e:	11 f4       	brne	.+4      	; 0x2734 <__fp_round+0xc>
    2730:	88 23       	and	r24, r24
    2732:	52 f0       	brmi	.+20     	; 0x2748 <__fp_round+0x20>
    2734:	bb 0f       	add	r27, r27
    2736:	40 f4       	brcc	.+16     	; 0x2748 <__fp_round+0x20>
    2738:	bf 2b       	or	r27, r31
    273a:	11 f4       	brne	.+4      	; 0x2740 <__fp_round+0x18>
    273c:	60 ff       	sbrs	r22, 0
    273e:	04 c0       	rjmp	.+8      	; 0x2748 <__fp_round+0x20>
    2740:	6f 5f       	subi	r22, 0xFF	; 255
    2742:	7f 4f       	sbci	r23, 0xFF	; 255
    2744:	8f 4f       	sbci	r24, 0xFF	; 255
    2746:	9f 4f       	sbci	r25, 0xFF	; 255
    2748:	08 95       	ret

0000274a <__fp_split3>:
    274a:	57 fd       	sbrc	r21, 7
    274c:	90 58       	subi	r25, 0x80	; 128
    274e:	44 0f       	add	r20, r20
    2750:	55 1f       	adc	r21, r21
    2752:	59 f0       	breq	.+22     	; 0x276a <__fp_splitA+0x10>
    2754:	5f 3f       	cpi	r21, 0xFF	; 255
    2756:	71 f0       	breq	.+28     	; 0x2774 <__fp_splitA+0x1a>
    2758:	47 95       	ror	r20

0000275a <__fp_splitA>:
    275a:	88 0f       	add	r24, r24
    275c:	97 fb       	bst	r25, 7
    275e:	99 1f       	adc	r25, r25
    2760:	61 f0       	breq	.+24     	; 0x277a <__fp_splitA+0x20>
    2762:	9f 3f       	cpi	r25, 0xFF	; 255
    2764:	79 f0       	breq	.+30     	; 0x2784 <__fp_splitA+0x2a>
    2766:	87 95       	ror	r24
    2768:	08 95       	ret
    276a:	12 16       	cp	r1, r18
    276c:	13 06       	cpc	r1, r19
    276e:	14 06       	cpc	r1, r20
    2770:	55 1f       	adc	r21, r21
    2772:	f2 cf       	rjmp	.-28     	; 0x2758 <__fp_split3+0xe>
    2774:	46 95       	lsr	r20
    2776:	f1 df       	rcall	.-30     	; 0x275a <__fp_splitA>
    2778:	08 c0       	rjmp	.+16     	; 0x278a <__fp_splitA+0x30>
    277a:	16 16       	cp	r1, r22
    277c:	17 06       	cpc	r1, r23
    277e:	18 06       	cpc	r1, r24
    2780:	99 1f       	adc	r25, r25
    2782:	f1 cf       	rjmp	.-30     	; 0x2766 <__fp_splitA+0xc>
    2784:	86 95       	lsr	r24
    2786:	71 05       	cpc	r23, r1
    2788:	61 05       	cpc	r22, r1
    278a:	08 94       	sec
    278c:	08 95       	ret

0000278e <__fp_zero>:
    278e:	e8 94       	clt

00002790 <__fp_szero>:
    2790:	bb 27       	eor	r27, r27
    2792:	66 27       	eor	r22, r22
    2794:	77 27       	eor	r23, r23
    2796:	cb 01       	movw	r24, r22
    2798:	97 f9       	bld	r25, 7
    279a:	08 95       	ret

0000279c <__gesf2>:
    279c:	0e 94 59 13 	call	0x26b2	; 0x26b2 <__fp_cmp>
    27a0:	08 f4       	brcc	.+2      	; 0x27a4 <__gesf2+0x8>
    27a2:	8f ef       	ldi	r24, 0xFF	; 255
    27a4:	08 95       	ret

000027a6 <__mulsf3>:
    27a6:	0e 94 e6 13 	call	0x27cc	; 0x27cc <__mulsf3x>
    27aa:	0c 94 94 13 	jmp	0x2728	; 0x2728 <__fp_round>
    27ae:	0e 94 86 13 	call	0x270c	; 0x270c <__fp_pscA>
    27b2:	38 f0       	brcs	.+14     	; 0x27c2 <__mulsf3+0x1c>
    27b4:	0e 94 8d 13 	call	0x271a	; 0x271a <__fp_pscB>
    27b8:	20 f0       	brcs	.+8      	; 0x27c2 <__mulsf3+0x1c>
    27ba:	95 23       	and	r25, r21
    27bc:	11 f0       	breq	.+4      	; 0x27c2 <__mulsf3+0x1c>
    27be:	0c 94 7d 13 	jmp	0x26fa	; 0x26fa <__fp_inf>
    27c2:	0c 94 83 13 	jmp	0x2706	; 0x2706 <__fp_nan>
    27c6:	11 24       	eor	r1, r1
    27c8:	0c 94 c8 13 	jmp	0x2790	; 0x2790 <__fp_szero>

000027cc <__mulsf3x>:
    27cc:	0e 94 a5 13 	call	0x274a	; 0x274a <__fp_split3>
    27d0:	70 f3       	brcs	.-36     	; 0x27ae <__mulsf3+0x8>

000027d2 <__mulsf3_pse>:
    27d2:	95 9f       	mul	r25, r21
    27d4:	c1 f3       	breq	.-16     	; 0x27c6 <__mulsf3+0x20>
    27d6:	95 0f       	add	r25, r21
    27d8:	50 e0       	ldi	r21, 0x00	; 0
    27da:	55 1f       	adc	r21, r21
    27dc:	62 9f       	mul	r22, r18
    27de:	f0 01       	movw	r30, r0
    27e0:	72 9f       	mul	r23, r18
    27e2:	bb 27       	eor	r27, r27
    27e4:	f0 0d       	add	r31, r0
    27e6:	b1 1d       	adc	r27, r1
    27e8:	63 9f       	mul	r22, r19
    27ea:	aa 27       	eor	r26, r26
    27ec:	f0 0d       	add	r31, r0
    27ee:	b1 1d       	adc	r27, r1
    27f0:	aa 1f       	adc	r26, r26
    27f2:	64 9f       	mul	r22, r20
    27f4:	66 27       	eor	r22, r22
    27f6:	b0 0d       	add	r27, r0
    27f8:	a1 1d       	adc	r26, r1
    27fa:	66 1f       	adc	r22, r22
    27fc:	82 9f       	mul	r24, r18
    27fe:	22 27       	eor	r18, r18
    2800:	b0 0d       	add	r27, r0
    2802:	a1 1d       	adc	r26, r1
    2804:	62 1f       	adc	r22, r18
    2806:	73 9f       	mul	r23, r19
    2808:	b0 0d       	add	r27, r0
    280a:	a1 1d       	adc	r26, r1
    280c:	62 1f       	adc	r22, r18
    280e:	83 9f       	mul	r24, r19
    2810:	a0 0d       	add	r26, r0
    2812:	61 1d       	adc	r22, r1
    2814:	22 1f       	adc	r18, r18
    2816:	74 9f       	mul	r23, r20
    2818:	33 27       	eor	r19, r19
    281a:	a0 0d       	add	r26, r0
    281c:	61 1d       	adc	r22, r1
    281e:	23 1f       	adc	r18, r19
    2820:	84 9f       	mul	r24, r20
    2822:	60 0d       	add	r22, r0
    2824:	21 1d       	adc	r18, r1
    2826:	82 2f       	mov	r24, r18
    2828:	76 2f       	mov	r23, r22
    282a:	6a 2f       	mov	r22, r26
    282c:	11 24       	eor	r1, r1
    282e:	9f 57       	subi	r25, 0x7F	; 127
    2830:	50 40       	sbci	r21, 0x00	; 0
    2832:	9a f0       	brmi	.+38     	; 0x285a <__mulsf3_pse+0x88>
    2834:	f1 f0       	breq	.+60     	; 0x2872 <__mulsf3_pse+0xa0>
    2836:	88 23       	and	r24, r24
    2838:	4a f0       	brmi	.+18     	; 0x284c <__mulsf3_pse+0x7a>
    283a:	ee 0f       	add	r30, r30
    283c:	ff 1f       	adc	r31, r31
    283e:	bb 1f       	adc	r27, r27
    2840:	66 1f       	adc	r22, r22
    2842:	77 1f       	adc	r23, r23
    2844:	88 1f       	adc	r24, r24
    2846:	91 50       	subi	r25, 0x01	; 1
    2848:	50 40       	sbci	r21, 0x00	; 0
    284a:	a9 f7       	brne	.-22     	; 0x2836 <__mulsf3_pse+0x64>
    284c:	9e 3f       	cpi	r25, 0xFE	; 254
    284e:	51 05       	cpc	r21, r1
    2850:	80 f0       	brcs	.+32     	; 0x2872 <__mulsf3_pse+0xa0>
    2852:	0c 94 7d 13 	jmp	0x26fa	; 0x26fa <__fp_inf>
    2856:	0c 94 c8 13 	jmp	0x2790	; 0x2790 <__fp_szero>
    285a:	5f 3f       	cpi	r21, 0xFF	; 255
    285c:	e4 f3       	brlt	.-8      	; 0x2856 <__mulsf3_pse+0x84>
    285e:	98 3e       	cpi	r25, 0xE8	; 232
    2860:	d4 f3       	brlt	.-12     	; 0x2856 <__mulsf3_pse+0x84>
    2862:	86 95       	lsr	r24
    2864:	77 95       	ror	r23
    2866:	67 95       	ror	r22
    2868:	b7 95       	ror	r27
    286a:	f7 95       	ror	r31
    286c:	e7 95       	ror	r30
    286e:	9f 5f       	subi	r25, 0xFF	; 255
    2870:	c1 f7       	brne	.-16     	; 0x2862 <__mulsf3_pse+0x90>
    2872:	fe 2b       	or	r31, r30
    2874:	88 0f       	add	r24, r24
    2876:	91 1d       	adc	r25, r1
    2878:	96 95       	lsr	r25
    287a:	87 95       	ror	r24
    287c:	97 f9       	bld	r25, 7
    287e:	08 95       	ret

00002880 <__divmodhi4>:
    2880:	97 fb       	bst	r25, 7
    2882:	07 2e       	mov	r0, r23
    2884:	16 f4       	brtc	.+4      	; 0x288a <__divmodhi4+0xa>
    2886:	00 94       	com	r0
    2888:	07 d0       	rcall	.+14     	; 0x2898 <__divmodhi4_neg1>
    288a:	77 fd       	sbrc	r23, 7
    288c:	09 d0       	rcall	.+18     	; 0x28a0 <__divmodhi4_neg2>
    288e:	0e 94 54 14 	call	0x28a8	; 0x28a8 <__udivmodhi4>
    2892:	07 fc       	sbrc	r0, 7
    2894:	05 d0       	rcall	.+10     	; 0x28a0 <__divmodhi4_neg2>
    2896:	3e f4       	brtc	.+14     	; 0x28a6 <__divmodhi4_exit>

00002898 <__divmodhi4_neg1>:
    2898:	90 95       	com	r25
    289a:	81 95       	neg	r24
    289c:	9f 4f       	sbci	r25, 0xFF	; 255
    289e:	08 95       	ret

000028a0 <__divmodhi4_neg2>:
    28a0:	70 95       	com	r23
    28a2:	61 95       	neg	r22
    28a4:	7f 4f       	sbci	r23, 0xFF	; 255

000028a6 <__divmodhi4_exit>:
    28a6:	08 95       	ret

000028a8 <__udivmodhi4>:
    28a8:	aa 1b       	sub	r26, r26
    28aa:	bb 1b       	sub	r27, r27
    28ac:	51 e1       	ldi	r21, 0x11	; 17
    28ae:	07 c0       	rjmp	.+14     	; 0x28be <__udivmodhi4_ep>

000028b0 <__udivmodhi4_loop>:
    28b0:	aa 1f       	adc	r26, r26
    28b2:	bb 1f       	adc	r27, r27
    28b4:	a6 17       	cp	r26, r22
    28b6:	b7 07       	cpc	r27, r23
    28b8:	10 f0       	brcs	.+4      	; 0x28be <__udivmodhi4_ep>
    28ba:	a6 1b       	sub	r26, r22
    28bc:	b7 0b       	sbc	r27, r23

000028be <__udivmodhi4_ep>:
    28be:	88 1f       	adc	r24, r24
    28c0:	99 1f       	adc	r25, r25
    28c2:	5a 95       	dec	r21
    28c4:	a9 f7       	brne	.-22     	; 0x28b0 <__udivmodhi4_loop>
    28c6:	80 95       	com	r24
    28c8:	90 95       	com	r25
    28ca:	bc 01       	movw	r22, r24
    28cc:	cd 01       	movw	r24, r26
    28ce:	08 95       	ret

000028d0 <__itoa_ncheck>:
    28d0:	bb 27       	eor	r27, r27
    28d2:	4a 30       	cpi	r20, 0x0A	; 10
    28d4:	31 f4       	brne	.+12     	; 0x28e2 <__itoa_ncheck+0x12>
    28d6:	99 23       	and	r25, r25
    28d8:	22 f4       	brpl	.+8      	; 0x28e2 <__itoa_ncheck+0x12>
    28da:	bd e2       	ldi	r27, 0x2D	; 45
    28dc:	90 95       	com	r25
    28de:	81 95       	neg	r24
    28e0:	9f 4f       	sbci	r25, 0xFF	; 255
    28e2:	0c 94 74 14 	jmp	0x28e8	; 0x28e8 <__utoa_common>

000028e6 <__utoa_ncheck>:
    28e6:	bb 27       	eor	r27, r27

000028e8 <__utoa_common>:
    28e8:	fb 01       	movw	r30, r22
    28ea:	55 27       	eor	r21, r21
    28ec:	aa 27       	eor	r26, r26
    28ee:	88 0f       	add	r24, r24
    28f0:	99 1f       	adc	r25, r25
    28f2:	aa 1f       	adc	r26, r26
    28f4:	a4 17       	cp	r26, r20
    28f6:	10 f0       	brcs	.+4      	; 0x28fc <__utoa_common+0x14>
    28f8:	a4 1b       	sub	r26, r20
    28fa:	83 95       	inc	r24
    28fc:	50 51       	subi	r21, 0x10	; 16
    28fe:	b9 f7       	brne	.-18     	; 0x28ee <__utoa_common+0x6>
    2900:	a0 5d       	subi	r26, 0xD0	; 208
    2902:	aa 33       	cpi	r26, 0x3A	; 58
    2904:	08 f0       	brcs	.+2      	; 0x2908 <__utoa_common+0x20>
    2906:	a9 5d       	subi	r26, 0xD9	; 217
    2908:	a1 93       	st	Z+, r26
    290a:	00 97       	sbiw	r24, 0x00	; 0
    290c:	79 f7       	brne	.-34     	; 0x28ec <__utoa_common+0x4>
    290e:	b1 11       	cpse	r27, r1
    2910:	b1 93       	st	Z+, r27
    2912:	11 92       	st	Z+, r1
    2914:	cb 01       	movw	r24, r22
    2916:	0c 94 8d 14 	jmp	0x291a	; 0x291a <strrev>

0000291a <strrev>:
    291a:	dc 01       	movw	r26, r24
    291c:	fc 01       	movw	r30, r24
    291e:	67 2f       	mov	r22, r23
    2920:	71 91       	ld	r23, Z+
    2922:	77 23       	and	r23, r23
    2924:	e1 f7       	brne	.-8      	; 0x291e <strrev+0x4>
    2926:	32 97       	sbiw	r30, 0x02	; 2
    2928:	04 c0       	rjmp	.+8      	; 0x2932 <strrev+0x18>
    292a:	7c 91       	ld	r23, X
    292c:	6d 93       	st	X+, r22
    292e:	70 83       	st	Z, r23
    2930:	62 91       	ld	r22, -Z
    2932:	ae 17       	cp	r26, r30
    2934:	bf 07       	cpc	r27, r31
    2936:	c8 f3       	brcs	.-14     	; 0x292a <strrev+0x10>
    2938:	08 95       	ret

0000293a <_exit>:
    293a:	f8 94       	cli

0000293c <__stop_program>:
    293c:	ff cf       	rjmp	.-2      	; 0x293c <__stop_program>
